	.section	__TEXT,__text,regular,pure_instructions
	.build_version macos, 14, 0
	.file	1 "/Users/kawar/GitHub/rust-instruction-dispatch/C/direct-call-threading" "direct_call_threading.c"
	.file	2 "/Library/Developer/CommandLineTools/SDKs/MacOSX14.sdk/usr/include" "time.h"
	.globl	_main                           ; -- Begin function main
	.p2align	2
_main:                                  ; @main
Lfunc_begin0:
	.loc	1 153 0                         ; direct_call_threading.c:153:0
	.cfi_startproc
; %bb.0:
	stp	x24, x23, [sp, #-64]!           ; 16-byte Folded Spill
	stp	x22, x21, [sp, #16]             ; 16-byte Folded Spill
	stp	x20, x19, [sp, #32]             ; 16-byte Folded Spill
	stp	x29, x30, [sp, #48]             ; 16-byte Folded Spill
	add	x29, sp, #48
	sub	sp, sp, #1200
	.cfi_def_cfa w29, 16
	.cfi_offset w30, -8
	.cfi_offset w29, -16
	.cfi_offset w19, -24
	.cfi_offset w20, -32
	.cfi_offset w21, -40
	.cfi_offset w22, -48
	.cfi_offset w23, -56
	.cfi_offset w24, -64
Lloh0:
	adrp	x8, ___stack_chk_guard@GOTPAGE
Lloh1:
	ldr	x8, [x8, ___stack_chk_guard@GOTPAGEOFF]
Lloh2:
	ldr	x8, [x8]
	stur	x8, [x29, #-56]
Ltmp0:
	.loc	1 168 9 prologue_end            ; direct_call_threading.c:168:9
	add	x0, sp, #56
	mov	w1, #1024                       ; =0x400
	bl	_bzero
Ltmp1:
	.loc	1 0 9 is_stmt 0                 ; direct_call_threading.c:0:9
	sub	x8, x29, #168
Ltmp2:
	;DEBUG_VALUE: convert:i <- 0
	;DEBUG_VALUE: convert:internal_instructions <- [DW_OP_constu 168, DW_OP_minus, DW_OP_stack_value] $fp
	.loc	1 116 5 is_stmt 1               ; direct_call_threading.c:116:5
	add	x8, x8, #8
Lloh3:
	adrp	x9, l___const.main.program@PAGE
Lloh4:
	add	x9, x9, l___const.main.program@PAGEOFF
Ltmp3:
	;DEBUG_VALUE: convert:instructions <- $x9
	.loc	1 0 5 is_stmt 0                 ; direct_call_threading.c:0:5
Lloh5:
	adrp	x10, LJTI0_0@PAGE
Lloh6:
	add	x10, x10, LJTI0_0@PAGEOFF
Lloh7:
	adrp	x11, _load@PAGE
Lloh8:
	add	x11, x11, _load@PAGEOFF
Lloh9:
	adrp	x12, _add@PAGE
Lloh10:
	add	x12, x12, _add@PAGEOFF
Lloh11:
	adrp	x13, _jmpne@PAGE
Lloh12:
	add	x13, x13, _jmpne@PAGEOFF
Lloh13:
	adrp	x14, _print@PAGE
Lloh14:
	add	x14, x14, _print@PAGEOFF
	b	LBB0_3
Ltmp4:
LBB0_1:                                 ;   in Loop: Header=BB0_3 Depth=1
	;DEBUG_VALUE: convert:i <- [DW_OP_LLVM_arg 0, DW_OP_consts 8, DW_OP_LLVM_arg 1, DW_OP_constu 168, DW_OP_minus, DW_OP_plus, DW_OP_minus, DW_OP_consts 16, DW_OP_div, DW_OP_stack_value] $x8, $fp
	;DEBUG_VALUE: convert:internal_instructions <- [DW_OP_constu 168, DW_OP_minus, DW_OP_stack_value] $fp
	.loc	1 138 46 is_stmt 1              ; direct_call_threading.c:138:46
	stur	x14, [x8, #-8]
	.loc	1 139 42                        ; direct_call_threading.c:139:42
	lsr	w15, w15, #24
	.loc	1 139 40 is_stmt 0              ; direct_call_threading.c:139:40
	strb	w15, [x8]
Ltmp5:
LBB0_2:                                 ;   in Loop: Header=BB0_3 Depth=1
	;DEBUG_VALUE: convert:i <- [DW_OP_LLVM_arg 0, DW_OP_consts 8, DW_OP_LLVM_arg 1, DW_OP_constu 168, DW_OP_minus, DW_OP_plus, DW_OP_minus, DW_OP_consts 16, DW_OP_div, DW_OP_stack_value] $x8, $fp
	;DEBUG_VALUE: convert:internal_instructions <- [DW_OP_constu 168, DW_OP_minus, DW_OP_stack_value] $fp
	;DEBUG_VALUE: convert:i <- [DW_OP_LLVM_arg 0, DW_OP_consts 8, DW_OP_LLVM_arg 1, DW_OP_constu 168, DW_OP_minus, DW_OP_plus, DW_OP_minus, DW_OP_consts 16, DW_OP_div, DW_OP_consts 1, DW_OP_plus, DW_OP_stack_value] $x8, $fp
	.loc	1 116 5 is_stmt 1               ; direct_call_threading.c:116:5
	add	x8, x8, #16
Ltmp6:
LBB0_3:                                 ; =>This Inner Loop Header: Depth=1
	;DEBUG_VALUE: convert:internal_instructions <- [DW_OP_constu 168, DW_OP_minus, DW_OP_stack_value] $fp
	;DEBUG_VALUE: convert:i <- [DW_OP_LLVM_arg 0, DW_OP_consts 8, DW_OP_LLVM_arg 1, DW_OP_constu 168, DW_OP_minus, DW_OP_plus, DW_OP_minus, DW_OP_consts 16, DW_OP_div, DW_OP_stack_value] $x8, $fp
	.loc	1 118 17                        ; direct_call_threading.c:118:17
	ldr	w15, [x9], #4
	.loc	1 118 9 is_stmt 0               ; direct_call_threading.c:118:9
	and	x16, x15, #0xf
	cmp	w16, #4
	b.hi	LBB0_2
Ltmp7:
; %bb.4:                                ;   in Loop: Header=BB0_3 Depth=1
	;DEBUG_VALUE: convert:i <- [DW_OP_LLVM_arg 0, DW_OP_consts 8, DW_OP_LLVM_arg 1, DW_OP_constu 168, DW_OP_minus, DW_OP_plus, DW_OP_minus, DW_OP_consts 16, DW_OP_div, DW_OP_stack_value] $x8, $fp
	;DEBUG_VALUE: convert:internal_instructions <- [DW_OP_constu 168, DW_OP_minus, DW_OP_stack_value] $fp
	.loc	1 0 9                           ; direct_call_threading.c:0:9
	adr	x17, LBB0_1
	ldrb	w0, [x10, x16]
	add	x17, x17, x0, lsl #2
	br	x17
Ltmp8:
LBB0_5:                                 ;   in Loop: Header=BB0_3 Depth=1
	;DEBUG_VALUE: convert:i <- [DW_OP_LLVM_arg 0, DW_OP_consts 8, DW_OP_LLVM_arg 1, DW_OP_constu 168, DW_OP_minus, DW_OP_plus, DW_OP_minus, DW_OP_consts 16, DW_OP_div, DW_OP_stack_value] $x8, $fp
	;DEBUG_VALUE: convert:internal_instructions <- [DW_OP_constu 168, DW_OP_minus, DW_OP_stack_value] $fp
	.loc	1 121 46 is_stmt 1              ; direct_call_threading.c:121:46
	stur	x11, [x8, #-8]
	.loc	1 122 42                        ; direct_call_threading.c:122:42
	lsr	w16, w15, #24
	.loc	1 122 40 is_stmt 0              ; direct_call_threading.c:122:40
	strb	w16, [x8]
	.loc	1 123 44 is_stmt 1              ; direct_call_threading.c:123:44
	ubfx	w15, w15, #4, #20
	.loc	1 123 42 is_stmt 0              ; direct_call_threading.c:123:42
	str	w15, [x8, #4]
Ltmp9:
	;DEBUG_VALUE: convert:i <- [DW_OP_LLVM_arg 0, DW_OP_consts 8, DW_OP_LLVM_arg 1, DW_OP_constu 168, DW_OP_minus, DW_OP_plus, DW_OP_minus, DW_OP_consts 16, DW_OP_div, DW_OP_consts 1, DW_OP_plus, DW_OP_stack_value] $x8, $fp
	.loc	1 116 5 is_stmt 1               ; direct_call_threading.c:116:5
	add	x8, x8, #16
Ltmp10:
	.loc	1 0 5 is_stmt 0                 ; direct_call_threading.c:0:5
	b	LBB0_3
Ltmp11:
LBB0_6:                                 ;   in Loop: Header=BB0_3 Depth=1
	;DEBUG_VALUE: convert:i <- [DW_OP_LLVM_arg 0, DW_OP_consts 8, DW_OP_LLVM_arg 1, DW_OP_constu 168, DW_OP_minus, DW_OP_plus, DW_OP_minus, DW_OP_consts 16, DW_OP_div, DW_OP_stack_value] $x8, $fp
	;DEBUG_VALUE: convert:internal_instructions <- [DW_OP_constu 168, DW_OP_minus, DW_OP_stack_value] $fp
	.loc	1 126 46 is_stmt 1              ; direct_call_threading.c:126:46
	stur	x12, [x8, #-8]
	.loc	1 127 42                        ; direct_call_threading.c:127:42
	lsr	w16, w15, #24
	.loc	1 127 40 is_stmt 0              ; direct_call_threading.c:127:40
	strb	w16, [x8]
	.loc	1 128 42 is_stmt 1              ; direct_call_threading.c:128:42
	lsr	w16, w15, #16
	.loc	1 128 40 is_stmt 0              ; direct_call_threading.c:128:40
	strb	w16, [x8, #1]
	.loc	1 129 42 is_stmt 1              ; direct_call_threading.c:129:42
	lsr	w15, w15, #4
	.loc	1 129 40 is_stmt 0              ; direct_call_threading.c:129:40
	strb	w15, [x8, #4]
Ltmp12:
	;DEBUG_VALUE: convert:i <- [DW_OP_LLVM_arg 0, DW_OP_consts 8, DW_OP_LLVM_arg 1, DW_OP_constu 168, DW_OP_minus, DW_OP_plus, DW_OP_minus, DW_OP_consts 16, DW_OP_div, DW_OP_consts 1, DW_OP_plus, DW_OP_stack_value] $x8, $fp
	.loc	1 116 5 is_stmt 1               ; direct_call_threading.c:116:5
	add	x8, x8, #16
Ltmp13:
	.loc	1 0 5 is_stmt 0                 ; direct_call_threading.c:0:5
	b	LBB0_3
Ltmp14:
LBB0_7:                                 ;   in Loop: Header=BB0_3 Depth=1
	;DEBUG_VALUE: convert:i <- [DW_OP_LLVM_arg 0, DW_OP_consts 8, DW_OP_LLVM_arg 1, DW_OP_constu 168, DW_OP_minus, DW_OP_plus, DW_OP_minus, DW_OP_consts 16, DW_OP_div, DW_OP_stack_value] $x8, $fp
	;DEBUG_VALUE: convert:internal_instructions <- [DW_OP_constu 168, DW_OP_minus, DW_OP_stack_value] $fp
	.loc	1 132 46 is_stmt 1              ; direct_call_threading.c:132:46
	stur	x13, [x8, #-8]
	.loc	1 133 42                        ; direct_call_threading.c:133:42
	lsr	w16, w15, #24
	.loc	1 133 40 is_stmt 0              ; direct_call_threading.c:133:40
	strb	w16, [x8]
	.loc	1 134 42 is_stmt 1              ; direct_call_threading.c:134:42
	lsr	w16, w15, #16
	.loc	1 134 40 is_stmt 0              ; direct_call_threading.c:134:40
	strb	w16, [x8, #1]
	.loc	1 135 44 is_stmt 1              ; direct_call_threading.c:135:44
	ubfx	w15, w15, #4, #12
	.loc	1 135 42 is_stmt 0              ; direct_call_threading.c:135:42
	str	w15, [x8, #4]
Ltmp15:
	;DEBUG_VALUE: convert:i <- [DW_OP_LLVM_arg 0, DW_OP_consts 8, DW_OP_LLVM_arg 1, DW_OP_constu 168, DW_OP_minus, DW_OP_plus, DW_OP_minus, DW_OP_consts 16, DW_OP_div, DW_OP_consts 1, DW_OP_plus, DW_OP_stack_value] $x8, $fp
	.loc	1 116 5 is_stmt 1               ; direct_call_threading.c:116:5
	add	x8, x8, #16
Ltmp16:
	.loc	1 0 5 is_stmt 0                 ; direct_call_threading.c:0:5
	b	LBB0_3
Ltmp17:
LBB0_8:
	;DEBUG_VALUE: convert:i <- [DW_OP_LLVM_arg 0, DW_OP_consts 8, DW_OP_LLVM_arg 1, DW_OP_constu 168, DW_OP_minus, DW_OP_plus, DW_OP_minus, DW_OP_consts 16, DW_OP_div, DW_OP_stack_value] $x8, $fp
	;DEBUG_VALUE: convert:internal_instructions <- [DW_OP_constu 168, DW_OP_minus, DW_OP_stack_value] $fp
	mov	w20, #0                         ; =0x0
	mov	x22, #0                         ; =0x0
Ltmp18:
	.loc	1 142 46 is_stmt 1              ; direct_call_threading.c:142:46
Lloh15:
	adrp	x9, _ret@PAGE
Lloh16:
	add	x9, x9, _ret@PAGEOFF
	stur	x9, [x8, #-8]
	;DEBUG_VALUE: i <- 0
Ltmp19:
	;DEBUG_VALUE: main:average <- 0
	.loc	1 0 46 is_stmt 0                ; direct_call_threading.c:0:46
	sub	x21, x29, #168
	mov	w23, #51712                     ; =0xca00
	movk	w23, #15258, lsl #16
Lloh17:
	adrp	x19, l_.str@PAGE
Lloh18:
	add	x19, x19, l_.str@PAGEOFF
Ltmp20:
LBB0_9:                                 ; =>This Loop Header: Depth=1
                                        ;     Child Loop BB0_10 Depth 2
	;DEBUG_VALUE: main:average <- $x22
	;DEBUG_VALUE: i <- $w20
	.loc	1 179 9 is_stmt 1               ; direct_call_threading.c:179:9
	add	x1, sp, #32
	mov	w0, #4                          ; =0x4
	bl	_clock_gettime
Ltmp21:
	;DEBUG_VALUE: main:pc <- 0
	.loc	1 0 9 is_stmt 0                 ; direct_call_threading.c:0:9
	mov	x8, #0                          ; =0x0
	.loc	1 180 12 is_stmt 1              ; direct_call_threading.c:180:12
	str	wzr, [sp, #52]
Ltmp22:
LBB0_10:                                ;   Parent Loop BB0_9 Depth=1
                                        ; =>  This Inner Loop Header: Depth=2
	;DEBUG_VALUE: i <- $w20
	;DEBUG_VALUE: main:average <- $x22
	;DEBUG_VALUE: main:pc <- $x8
	.loc	1 183 13                        ; direct_call_threading.c:183:13
	lsl	x8, x8, #4
Ltmp23:
	.loc	1 183 34 is_stmt 0              ; direct_call_threading.c:183:34
	ldr	x8, [x21, x8]
Ltmp24:
	;DEBUG_VALUE: main:pc <- [DW_OP_plus_uconst 52, DW_OP_deref] $sp
	.loc	1 183 13                        ; direct_call_threading.c:183:13
	sub	x0, x29, #168
	add	x1, sp, #52
	add	x2, sp, #56
	blr	x8
Ltmp25:
	.loc	1 181 16 is_stmt 1              ; direct_call_threading.c:181:16
	ldr	w8, [sp, #52]
Ltmp26:
	;DEBUG_VALUE: main:pc <- $w8
	.loc	1 181 9 is_stmt 0               ; direct_call_threading.c:181:9
	cmp	w8, #7
	b.lo	LBB0_10
Ltmp27:
; %bb.11:                               ;   in Loop: Header=BB0_9 Depth=1
	;DEBUG_VALUE: main:pc <- $w8
	;DEBUG_VALUE: i <- $w20
	;DEBUG_VALUE: main:average <- $x22
	.loc	1 175 13 is_stmt 1              ; direct_call_threading.c:175:13
	cmp	w20, #10
	csel	x22, xzr, x22, eq
Ltmp28:
	;DEBUG_VALUE: main:average <- $x22
	.loc	1 185 9                         ; direct_call_threading.c:185:9
	add	x1, sp, #16
	mov	w0, #4                          ; =0x4
	bl	_clock_gettime
Ltmp29:
	.loc	1 186 28                        ; direct_call_threading.c:186:28
	ldp	x8, x9, [sp, #16]
	.loc	1 186 46 is_stmt 0              ; direct_call_threading.c:186:46
	ldp	x10, x11, [sp, #32]
	.loc	1 186 35                        ; direct_call_threading.c:186:35
	sub	x8, x8, x10
	.loc	1 186 67                        ; direct_call_threading.c:186:67
	madd	x8, x8, x23, x9
	.loc	1 186 84                        ; direct_call_threading.c:186:84
	sub	x8, x8, x11
	.loc	1 186 17                        ; direct_call_threading.c:186:17
	add	x22, x8, x22
Ltmp30:
	;DEBUG_VALUE: main:average <- $x22
	.loc	1 187 9 is_stmt 1               ; direct_call_threading.c:187:9
	str	x8, [sp]
	mov	x0, x19
	bl	_printf
Ltmp31:
	.loc	1 173 68                        ; direct_call_threading.c:173:68
	add	w20, w20, #1
Ltmp32:
	;DEBUG_VALUE: i <- $w20
	.loc	1 173 5 is_stmt 0               ; direct_call_threading.c:173:5
	cmp	w20, #110
	b.ne	LBB0_9
Ltmp33:
; %bb.12:
	;DEBUG_VALUE: main:average <- $x22
	.loc	1 0 5                           ; direct_call_threading.c:0:5
	mov	x8, #55051                      ; =0xd70b
	movk	x8, #28835, lsl #16
	movk	x8, #2621, lsl #32
	movk	x8, #41943, lsl #48
	.loc	1 190 13 is_stmt 1              ; direct_call_threading.c:190:13
	smulh	x8, x22, x8
	add	x8, x8, x22
	asr	x9, x8, #6
	add	x8, x9, x8, lsr #63
Ltmp34:
	;DEBUG_VALUE: main:average <- $x8
	.loc	1 0 13 is_stmt 0                ; direct_call_threading.c:0:13
	mov	w9, #100                        ; =0x64
	.loc	1 191 5 is_stmt 1               ; direct_call_threading.c:191:5
	stp	x9, x8, [sp]
Lloh19:
	adrp	x0, l_.str.1@PAGE
Lloh20:
	add	x0, x0, l_.str.1@PAGEOFF
	bl	_printf
Ltmp35:
	.loc	1 0 5 is_stmt 0                 ; direct_call_threading.c:0:5
	ldur	x8, [x29, #-56]
Lloh21:
	adrp	x9, ___stack_chk_guard@GOTPAGE
Lloh22:
	ldr	x9, [x9, ___stack_chk_guard@GOTPAGEOFF]
Lloh23:
	ldr	x9, [x9]
	cmp	x9, x8
	b.ne	LBB0_14
; %bb.13:
	.loc	1 192 1 is_stmt 1               ; direct_call_threading.c:192:1
	mov	w0, #0                          ; =0x0
	.loc	1 192 1 epilogue_begin is_stmt 0 ; direct_call_threading.c:192:1
	add	sp, sp, #1200
	ldp	x29, x30, [sp, #48]             ; 16-byte Folded Reload
	ldp	x20, x19, [sp, #32]             ; 16-byte Folded Reload
	ldp	x22, x21, [sp, #16]             ; 16-byte Folded Reload
	ldp	x24, x23, [sp], #64             ; 16-byte Folded Reload
	ret
Ltmp36:
LBB0_14:
	.loc	1 0 1                           ; direct_call_threading.c:0:1
	bl	___stack_chk_fail
Ltmp37:
	.loh AdrpAdd	Lloh13, Lloh14
	.loh AdrpAdd	Lloh11, Lloh12
	.loh AdrpAdd	Lloh9, Lloh10
	.loh AdrpAdd	Lloh7, Lloh8
	.loh AdrpAdd	Lloh5, Lloh6
	.loh AdrpAdd	Lloh3, Lloh4
	.loh AdrpLdrGotLdr	Lloh0, Lloh1, Lloh2
	.loh AdrpAdd	Lloh17, Lloh18
	.loh AdrpAdd	Lloh15, Lloh16
	.loh AdrpLdrGotLdr	Lloh21, Lloh22, Lloh23
	.loh AdrpAdd	Lloh19, Lloh20
Lfunc_end0:
	.cfi_endproc
	.section	__TEXT,__const
LJTI0_0:
	.byte	(LBB0_5-LBB0_1)>>2
	.byte	(LBB0_6-LBB0_1)>>2
	.byte	(LBB0_7-LBB0_1)>>2
	.byte	(LBB0_1-LBB0_1)>>2
	.byte	(LBB0_8-LBB0_1)>>2
	.file	3 "/Library/Developer/CommandLineTools/SDKs/MacOSX14.sdk/usr/include/arm" "_types.h"
	.file	4 "/Library/Developer/CommandLineTools/SDKs/MacOSX14.sdk/usr/include/sys/_types" "_timespec.h"
	.file	5 "/Library/Developer/CommandLineTools/SDKs/MacOSX14.sdk/usr/include" "stdio.h"
                                        ; -- End function
	.section	__TEXT,__text,regular,pure_instructions
	.p2align	2                               ; -- Begin function load
_load:                                  ; @load
Lfunc_begin1:
	.cfi_startproc
; %bb.0:
	;DEBUG_VALUE: load:instruction <- $x0
	;DEBUG_VALUE: load:pc <- $x1
	;DEBUG_VALUE: load:memory <- $x2
	.loc	1 66 46 prologue_end is_stmt 1  ; direct_call_threading.c:66:46
	ldrsw	x8, [x1]
	.loc	1 66 51 is_stmt 0               ; direct_call_threading.c:66:51
	add	x9, x0, x8, lsl #4
	ldr	w10, [x9, #12]
	.loc	1 66 29                         ; direct_call_threading.c:66:29
	ldrb	w9, [x9, #8]
	.loc	1 66 32                         ; direct_call_threading.c:66:32
	str	w10, [x2, x9, lsl #2]
Ltmp38:
	;DEBUG_VALUE: load:instruction <- [DW_OP_plus_uconst 16, DW_OP_stack_value] undef
	.loc	1 68 10 is_stmt 1               ; direct_call_threading.c:68:10
	add	w8, w8, #1
	str	w8, [x1]
	.loc	1 69 1                          ; direct_call_threading.c:69:1
	ret
Ltmp39:
Lfunc_end1:
	.cfi_endproc
                                        ; -- End function
	.p2align	2                               ; -- Begin function add
_add:                                   ; @add
Lfunc_begin2:
	.cfi_startproc
; %bb.0:
	;DEBUG_VALUE: add:instruction <- $x0
	;DEBUG_VALUE: add:pc <- $x1
	;DEBUG_VALUE: add:memory <- $x2
	.loc	1 75 53 prologue_end            ; direct_call_threading.c:75:53
	ldrsw	x8, [x1]
	.loc	1 75 58 is_stmt 0               ; direct_call_threading.c:75:58
	add	x9, x0, x8, lsl #4
	ldrb	w10, [x9, #9]
	.loc	1 75 34                         ; direct_call_threading.c:75:34
	ldr	w10, [x2, x10, lsl #2]
	.loc	1 75 87                         ; direct_call_threading.c:75:87
	ldrb	w11, [x9, #12]
	.loc	1 75 63                         ; direct_call_threading.c:75:63
	ldr	w11, [x2, x11, lsl #2]
	.loc	1 75 61                         ; direct_call_threading.c:75:61
	add	w10, w11, w10
	.loc	1 75 29                         ; direct_call_threading.c:75:29
	ldrb	w9, [x9, #8]
	.loc	1 75 32                         ; direct_call_threading.c:75:32
	str	w10, [x2, x9, lsl #2]
Ltmp40:
	;DEBUG_VALUE: add:instruction <- [DW_OP_plus_uconst 16, DW_OP_stack_value] undef
	.loc	1 77 10 is_stmt 1               ; direct_call_threading.c:77:10
	add	w8, w8, #1
	str	w8, [x1]
	.loc	1 78 1                          ; direct_call_threading.c:78:1
	ret
Ltmp41:
Lfunc_end2:
	.cfi_endproc
                                        ; -- End function
	.p2align	2                               ; -- Begin function jmpne
_jmpne:                                 ; @jmpne
Lfunc_begin3:
	.cfi_startproc
; %bb.0:
	;DEBUG_VALUE: jmpne:instruction <- $x0
	;DEBUG_VALUE: jmpne:pc <- $x1
	;DEBUG_VALUE: jmpne:memory <- $x2
	.loc	1 84 28 prologue_end            ; direct_call_threading.c:84:28
	ldrsw	x8, [x1]
	.loc	1 84 33 is_stmt 0               ; direct_call_threading.c:84:33
	add	x9, x0, x8, lsl #4
	ldrb	w10, [x9, #8]
	.loc	1 84 9                          ; direct_call_threading.c:84:9
	ldr	w10, [x2, x10, lsl #2]
	.loc	1 84 63                         ; direct_call_threading.c:84:63
	ldrb	w11, [x9, #9]
	.loc	1 84 39                         ; direct_call_threading.c:84:39
	ldr	w11, [x2, x11, lsl #2]
Ltmp42:
	.loc	1 84 9                          ; direct_call_threading.c:84:9
	cmp	w10, w11
	b.ne	LBB3_2
Ltmp43:
; %bb.1:
	;DEBUG_VALUE: jmpne:memory <- $x2
	;DEBUG_VALUE: jmpne:pc <- $x1
	;DEBUG_VALUE: jmpne:instruction <- $x0
	.loc	1 90 14 is_stmt 1               ; direct_call_threading.c:90:14
	add	w8, w8, #1
Ltmp44:
	.loc	1 0 0 is_stmt 0                 ; direct_call_threading.c:0:0
	str	w8, [x1]
Ltmp45:
	.loc	1 92 1 is_stmt 1                ; direct_call_threading.c:92:1
	ret
Ltmp46:
LBB3_2:
	;DEBUG_VALUE: jmpne:memory <- $x2
	;DEBUG_VALUE: jmpne:pc <- $x1
	;DEBUG_VALUE: jmpne:instruction <- $x0
	.loc	1 86 32                         ; direct_call_threading.c:86:32
	ldr	w8, [x9, #12]
Ltmp47:
	.loc	1 0 0 is_stmt 0                 ; direct_call_threading.c:0:0
	str	w8, [x1]
Ltmp48:
	.loc	1 92 1 is_stmt 1                ; direct_call_threading.c:92:1
	ret
Ltmp49:
Lfunc_end3:
	.cfi_endproc
                                        ; -- End function
	.p2align	2                               ; -- Begin function print
_print:                                 ; @print
Lfunc_begin4:
	.loc	1 97 0                          ; direct_call_threading.c:97:0
	.cfi_startproc
; %bb.0:
	;DEBUG_VALUE: print:instruction <- $x0
	;DEBUG_VALUE: print:pc <- $x1
	;DEBUG_VALUE: print:memory <- $x2
	sub	sp, sp, #48
	stp	x20, x19, [sp, #16]             ; 16-byte Folded Spill
	stp	x29, x30, [sp, #32]             ; 16-byte Folded Spill
	add	x29, sp, #32
	.cfi_def_cfa w29, 16
	.cfi_offset w30, -8
	.cfi_offset w29, -16
	.cfi_offset w19, -24
	.cfi_offset w20, -32
	mov	x19, x1
Ltmp50:
	;DEBUG_VALUE: print:pc <- $x19
	.loc	1 98 39 prologue_end            ; direct_call_threading.c:98:39
	ldrsw	x8, [x1]
	.loc	1 98 44 is_stmt 0               ; direct_call_threading.c:98:44
	add	x8, x0, x8, lsl #4
	ldrb	w8, [x8, #8]
	.loc	1 98 5                          ; direct_call_threading.c:98:5
	ldr	w8, [x2, x8, lsl #2]
	str	x8, [sp]
Lloh24:
	adrp	x0, l_.str.2@PAGE
Ltmp51:
	;DEBUG_VALUE: print:instruction <- [DW_OP_LLVM_entry_value 1] $x0
Lloh25:
	add	x0, x0, l_.str.2@PAGEOFF
	bl	_printf
Ltmp52:
	;DEBUG_VALUE: print:memory <- [DW_OP_LLVM_entry_value 1] $x2
	;DEBUG_VALUE: print:instruction <- [DW_OP_plus_uconst 16, DW_OP_stack_value] undef
	.loc	1 100 10 is_stmt 1              ; direct_call_threading.c:100:10
	ldr	w8, [x19]
	add	w8, w8, #1
	str	w8, [x19]
	.loc	1 101 1 epilogue_begin          ; direct_call_threading.c:101:1
	ldp	x29, x30, [sp, #32]             ; 16-byte Folded Reload
	ldp	x20, x19, [sp, #16]             ; 16-byte Folded Reload
Ltmp53:
	;DEBUG_VALUE: print:pc <- [DW_OP_LLVM_entry_value 1] $x1
	add	sp, sp, #48
	ret
Ltmp54:
	.loh AdrpAdd	Lloh24, Lloh25
Lfunc_end4:
	.cfi_endproc
                                        ; -- End function
	.p2align	2                               ; -- Begin function ret
_ret:                                   ; @ret
Lfunc_begin5:
	.cfi_startproc
; %bb.0:
	;DEBUG_VALUE: ret:pc <- $x1
	;DEBUG_VALUE: ret:instruction <- undef
	;DEBUG_VALUE: ret:memory <- undef
	.loc	1 107 10 prologue_end           ; direct_call_threading.c:107:10
	ldr	w8, [x1]
	add	w8, w8, #1
	str	w8, [x1]
	.loc	1 108 1                         ; direct_call_threading.c:108:1
	ret
Ltmp55:
Lfunc_end5:
	.cfi_endproc
                                        ; -- End function
	.section	__TEXT,__const
	.p2align	2, 0x0                          ; @__const.main.program
l___const.main.program:
	.long	0                               ; 0x0
	.long	16777232                        ; 0x1000010
	.long	50331632                        ; 0x2fffff0
	.long	17                              ; 0x11
	.long	131122                          ; 0x20032
	.long	3                               ; 0x3
	.long	4                               ; 0x4

	.section	__TEXT,__cstring,cstring_literals
l_.str:                                 ; @.str
	.asciz	"Time elapsed: %10ld ns\n"

l_.str.1:                               ; @.str.1
	.asciz	"Average of %d results: %10ld ns\n"

l_.str.2:                               ; @.str.2
	.asciz	"%d\n"
