	.section	__TEXT,__text,regular,pure_instructions
	.build_version macos, 11, 0
	.globl	__ZN5mylib8bytecode6Opcode8from_u3217h4a56d704a8e87909E
	.p2align	2
__ZN5mylib8bytecode6Opcode8from_u3217h4a56d704a8e87909E:
	.cfi_startproc
	sub	sp, sp, #96
	.cfi_def_cfa_offset 96
	stp	x29, x30, [sp, #80]
	add	x29, sp, #80
	.cfi_def_cfa w29, 16
	.cfi_offset w30, -8
	.cfi_offset w29, -16
	.cfi_remember_state
	str	w0, [sp, #12]
	cmp	w0, #5
	b.hs	LBB0_2
	.cfi_def_cfa wsp, 96
	ldp	x29, x30, [sp, #80]
	add	sp, sp, #96
	.cfi_def_cfa_offset 0
	.cfi_restore w30
	.cfi_restore w29
	ret
LBB0_2:
	.cfi_restore_state
Lloh0:
	adrp	x8, __ZN4core3fmt3num3imp52_$LT$impl$u20$core..fmt..Display$u20$for$u20$u32$GT$3fmt17h86eb4398173913faE@GOTPAGE
Lloh1:
	ldr	x8, [x8, __ZN4core3fmt3num3imp52_$LT$impl$u20$core..fmt..Display$u20$for$u20$u32$GT$3fmt17h86eb4398173913faE@GOTPAGEOFF]
	add	x9, sp, #12
	stp	x9, x8, [x29, #-16]
Lloh2:
	adrp	x8, l___unnamed_1@PAGE
Lloh3:
	add	x8, x8, l___unnamed_1@PAGEOFF
	mov	w9, #1
	stp	x8, x9, [sp, #16]
	stp	x9, xzr, [sp, #40]
	sub	x8, x29, #16
	str	x8, [sp, #32]
Lloh4:
	adrp	x1, l___unnamed_2@PAGE
Lloh5:
	add	x1, x1, l___unnamed_2@PAGEOFF
	add	x0, sp, #16
	bl	__ZN4core9panicking9panic_fmt17h3bbf9265d206434cE
	.loh AdrpAdd	Lloh4, Lloh5
	.loh AdrpAdd	Lloh2, Lloh3
	.loh AdrpLdrGot	Lloh0, Lloh1
	.cfi_endproc

	.globl	__ZN5mylib8bytecode7vm_loop17h5487fec91a602e89E
	.p2align	2
__ZN5mylib8bytecode7vm_loop17h5487fec91a602e89E:
	.cfi_startproc
	stp	x28, x27, [sp, #-96]!
	.cfi_def_cfa_offset 96
	stp	x26, x25, [sp, #16]
	stp	x24, x23, [sp, #32]
	stp	x22, x21, [sp, #48]
	stp	x20, x19, [sp, #64]
	stp	x29, x30, [sp, #80]
	add	x29, sp, #80
	.cfi_def_cfa w29, 16
	.cfi_offset w30, -8
	.cfi_offset w29, -16
	.cfi_offset w19, -24
	.cfi_offset w20, -32
	.cfi_offset w21, -40
	.cfi_offset w22, -48
	.cfi_offset w23, -56
	.cfi_offset w24, -64
	.cfi_offset w25, -72
	.cfi_offset w26, -80
	.cfi_offset w27, -88
	.cfi_offset w28, -96
	.cfi_remember_state
	sub	sp, sp, #1104
	mov	x19, x1
	mov	x20, x0
	add	x23, sp, #4
	add	x0, sp, #4
	mov	w1, #1024
	bl	_bzero
	mov	x21, #0
	cbz	x19, LBB1_12
Lloh6:
	adrp	x25, LJTI1_0@PAGE
Lloh7:
	add	x25, x25, LJTI1_0@PAGEOFF
	sub	x22, x29, #152
	mov	w26, #2
	sub	x27, x29, #104
	mov	w28, #1
Lloh8:
	adrp	x24, l___unnamed_3@PAGE
Lloh9:
	add	x24, x24, l___unnamed_3@PAGEOFF
	b	LBB1_4
LBB1_2:
	ubfx	w9, w8, #4, #20
	lsr	x8, x8, #22
	and	x8, x8, #0x3fc
	str	w9, [x23, x8]
LBB1_3:
	add	x21, x21, #1
	cmp	x21, x19
	b.hs	LBB1_12
LBB1_4:
	ldr	w8, [x20, x21, lsl #2]
	and	x9, x8, #0xf
	stur	w9, [x29, #-156]
	cmp	w9, #4
	b.hi	LBB1_14
	adr	x10, LBB1_2
	ldrb	w11, [x25, x9]
	add	x10, x10, x11, lsl #2
	br	x10
LBB1_6:
	ubfx	x9, x8, #4, #12
	cmp	w9, #256
	b.hs	LBB1_13
	ubfx	w10, w8, #16, #8
	ldr	w10, [x23, w10, uxtw #2]
	ubfx	x8, x8, #24, #8
	ldr	w9, [x23, x9, lsl #2]
	add	w9, w9, w10
	str	w9, [x23, w8, uxtw #2]
	b	LBB1_3
LBB1_8:
	ubfx	x9, x8, #16, #8
	lsr	x10, x8, #22
	and	x10, x10, #0x3fc
	ldr	w10, [x23, x10]
	ldr	w9, [x23, x9, lsl #2]
	cmp	w10, w9
	b.eq	LBB1_3
	ubfx	w8, w8, #4, #12
	sub	x21, x8, #1
	b	LBB1_3
LBB1_10:
	lsr	x8, x8, #22
	and	x8, x8, #0x3fc
	add	x8, x23, x8
	str	x8, [x22, #48]
Lloh10:
	adrp	x8, __ZN4core3fmt3num3imp52_$LT$impl$u20$core..fmt..Display$u20$for$u20$u32$GT$3fmt17h86eb4398173913faE@GOTPAGE
Lloh11:
	ldr	x8, [x8, __ZN4core3fmt3num3imp52_$LT$impl$u20$core..fmt..Display$u20$for$u20$u32$GT$3fmt17h86eb4398173913faE@GOTPAGEOFF]
	str	x8, [x22, #56]
	stp	x24, x26, [x22]
	stp	x28, xzr, [x22, #24]
	str	x27, [x22, #16]
	sub	x0, x29, #152
	bl	__ZN3std2io5stdio6_print17hb79efcbb9b8c1566E
	b	LBB1_3
LBB1_11:
	add	sp, sp, #1104
	.cfi_def_cfa wsp, 96
	ldp	x29, x30, [sp, #80]
	ldp	x20, x19, [sp, #64]
	ldp	x22, x21, [sp, #48]
	ldp	x24, x23, [sp, #32]
	ldp	x26, x25, [sp, #16]
	ldp	x28, x27, [sp], #96
	.cfi_def_cfa_offset 0
	.cfi_restore w30
	.cfi_restore w29
	.cfi_restore w19
	.cfi_restore w20
	.cfi_restore w21
	.cfi_restore w22
	.cfi_restore w23
	.cfi_restore w24
	.cfi_restore w25
	.cfi_restore w26
	.cfi_restore w27
	.cfi_restore w28
	ret
LBB1_12:
	.cfi_restore_state
Lloh12:
	adrp	x2, l___unnamed_4@PAGE
Lloh13:
	add	x2, x2, l___unnamed_4@PAGEOFF
	mov	x0, x21
	mov	x1, x19
	bl	__ZN4core9panicking18panic_bounds_check17h498693eedff70cb4E
LBB1_13:
	mov	w0, w9
Lloh14:
	adrp	x2, l___unnamed_5@PAGE
Lloh15:
	add	x2, x2, l___unnamed_5@PAGEOFF
	mov	w1, #256
	bl	__ZN4core9panicking18panic_bounds_check17h498693eedff70cb4E
LBB1_14:
	sub	x8, x29, #156
	str	x8, [x22, #48]
Lloh16:
	adrp	x8, __ZN4core3fmt3num3imp52_$LT$impl$u20$core..fmt..Display$u20$for$u20$u32$GT$3fmt17h86eb4398173913faE@GOTPAGE
Lloh17:
	ldr	x8, [x8, __ZN4core3fmt3num3imp52_$LT$impl$u20$core..fmt..Display$u20$for$u20$u32$GT$3fmt17h86eb4398173913faE@GOTPAGEOFF]
	str	x8, [x22, #56]
Lloh18:
	adrp	x8, l___unnamed_1@PAGE
Lloh19:
	add	x8, x8, l___unnamed_1@PAGEOFF
	mov	w9, #1
	stp	x8, x9, [x22]
	stp	x9, xzr, [x22, #24]
	sub	x8, x29, #104
	str	x8, [x22, #16]
Lloh20:
	adrp	x1, l___unnamed_2@PAGE
Lloh21:
	add	x1, x1, l___unnamed_2@PAGEOFF
	sub	x0, x29, #152
	bl	__ZN4core9panicking9panic_fmt17h3bbf9265d206434cE
	.loh AdrpAdd	Lloh8, Lloh9
	.loh AdrpAdd	Lloh6, Lloh7
	.loh AdrpLdrGot	Lloh10, Lloh11
	.loh AdrpAdd	Lloh12, Lloh13
	.loh AdrpAdd	Lloh14, Lloh15
	.loh AdrpAdd	Lloh20, Lloh21
	.loh AdrpAdd	Lloh18, Lloh19
	.loh AdrpLdrGot	Lloh16, Lloh17
	.cfi_endproc
	.section	__TEXT,__const
LJTI1_0:
	.byte	(LBB1_2-LBB1_2)>>2
	.byte	(LBB1_6-LBB1_2)>>2
	.byte	(LBB1_8-LBB1_2)>>2
	.byte	(LBB1_10-LBB1_2)>>2
	.byte	(LBB1_11-LBB1_2)>>2

	.section	__TEXT,__text,regular,pure_instructions
	.globl	__ZN5mylib8bytecode14print_bytecode17h713b13ef63eeae19E
	.p2align	2
__ZN5mylib8bytecode14print_bytecode17h713b13ef63eeae19E:
	.cfi_startproc
	sub	sp, sp, #128
	.cfi_def_cfa_offset 128
	stp	x29, x30, [sp, #112]
	add	x29, sp, #112
	.cfi_def_cfa w29, 16
	.cfi_offset w30, -8
	.cfi_offset w29, -16
	.cfi_remember_state
	and	w8, w0, #0xf
	stur	w8, [x29, #-52]
	cmp	w8, #4
	b.hi	LBB2_11
Lloh22:
	adrp	x9, LJTI2_0@PAGE
Lloh23:
	add	x9, x9, LJTI2_0@PAGEOFF
	adr	x10, LBB2_2
	ldrb	w11, [x9, x8]
	add	x10, x10, x11, lsl #2
	br	x10
LBB2_2:
	lsr	w8, w0, #24
	str	w8, [sp, #56]
	ubfx	w8, w0, #4, #20
	stur	w8, [x29, #-52]
	add	x8, sp, #56
Lloh24:
	adrp	x9, __ZN4core3fmt3num3imp52_$LT$impl$u20$core..fmt..Display$u20$for$u20$u32$GT$3fmt17h86eb4398173913faE@GOTPAGE
Lloh25:
	ldr	x9, [x9, __ZN4core3fmt3num3imp52_$LT$impl$u20$core..fmt..Display$u20$for$u20$u32$GT$3fmt17h86eb4398173913faE@GOTPAGEOFF]
	stp	x8, x9, [sp]
	sub	x8, x29, #52
	stp	x8, x9, [sp, #16]
Lloh26:
	adrp	x8, l___unnamed_6@PAGE
Lloh27:
	add	x8, x8, l___unnamed_6@PAGEOFF
	mov	w9, #3
	stp	x8, x9, [x29, #-48]
	stur	xzr, [x29, #-16]
	mov	x8, sp
	mov	w9, #2
	b	LBB2_7
LBB2_3:
	lsr	w9, w0, #24
	ubfx	w8, w0, #16, #8
	stp	w9, w8, [sp, #52]
	ubfx	w8, w0, #4, #12
	stur	w8, [x29, #-52]
	add	x8, sp, #52
Lloh28:
	adrp	x9, __ZN4core3fmt3num3imp52_$LT$impl$u20$core..fmt..Display$u20$for$u20$u32$GT$3fmt17h86eb4398173913faE@GOTPAGE
Lloh29:
	ldr	x9, [x9, __ZN4core3fmt3num3imp52_$LT$impl$u20$core..fmt..Display$u20$for$u20$u32$GT$3fmt17h86eb4398173913faE@GOTPAGEOFF]
	stp	x8, x9, [x29, #-48]
	add	x8, sp, #56
	stp	x8, x9, [x29, #-32]
	sub	x8, x29, #52
	stp	x8, x9, [x29, #-16]
Lloh30:
	adrp	x8, l___unnamed_7@PAGE
Lloh31:
	add	x8, x8, l___unnamed_7@PAGEOFF
	b	LBB2_5
LBB2_4:
	lsr	w9, w0, #24
	ubfx	w8, w0, #16, #8
	stp	w9, w8, [sp, #52]
	ubfx	w8, w0, #4, #12
	stur	w8, [x29, #-52]
	add	x8, sp, #52
Lloh32:
	adrp	x9, __ZN4core3fmt3num3imp52_$LT$impl$u20$core..fmt..Display$u20$for$u20$u32$GT$3fmt17h86eb4398173913faE@GOTPAGE
Lloh33:
	ldr	x9, [x9, __ZN4core3fmt3num3imp52_$LT$impl$u20$core..fmt..Display$u20$for$u20$u32$GT$3fmt17h86eb4398173913faE@GOTPAGEOFF]
	stp	x8, x9, [x29, #-48]
	add	x8, sp, #56
	stp	x8, x9, [x29, #-32]
	sub	x8, x29, #52
	stp	x8, x9, [x29, #-16]
Lloh34:
	adrp	x8, l___unnamed_8@PAGE
Lloh35:
	add	x8, x8, l___unnamed_8@PAGEOFF
LBB2_5:
	mov	w9, #4
	stp	x8, x9, [sp]
	sub	x8, x29, #48
	mov	w9, #3
	str	x8, [sp, #16]
	stp	x9, xzr, [sp, #24]
	mov	x0, sp
	b	LBB2_10
LBB2_6:
	lsr	w8, w0, #24
	stur	w8, [x29, #-52]
	sub	x8, x29, #52
Lloh36:
	adrp	x9, __ZN4core3fmt3num3imp52_$LT$impl$u20$core..fmt..Display$u20$for$u20$u32$GT$3fmt17h86eb4398173913faE@GOTPAGE
Lloh37:
	ldr	x9, [x9, __ZN4core3fmt3num3imp52_$LT$impl$u20$core..fmt..Display$u20$for$u20$u32$GT$3fmt17h86eb4398173913faE@GOTPAGEOFF]
	stp	x8, x9, [sp]
Lloh38:
	adrp	x8, l___unnamed_9@PAGE
Lloh39:
	add	x8, x8, l___unnamed_9@PAGEOFF
	mov	w9, #2
	stp	x8, x9, [x29, #-48]
	stur	xzr, [x29, #-16]
	mov	x8, sp
	mov	w9, #1
LBB2_7:
	stp	x8, x9, [x29, #-32]
	b	LBB2_9
LBB2_8:
Lloh40:
	adrp	x8, l___unnamed_10@PAGE
Lloh41:
	add	x8, x8, l___unnamed_10@PAGEOFF
	mov	w9, #1
	stp	x8, x9, [x29, #-48]
Lloh42:
	adrp	x8, l___unnamed_11@PAGE
Lloh43:
	add	x8, x8, l___unnamed_11@PAGEOFF
	stp	xzr, xzr, [x29, #-24]
	stur	x8, [x29, #-32]
LBB2_9:
	sub	x0, x29, #48
LBB2_10:
	bl	__ZN3std2io5stdio6_print17hb79efcbb9b8c1566E
	.cfi_def_cfa wsp, 128
	ldp	x29, x30, [sp, #112]
	add	sp, sp, #128
	.cfi_def_cfa_offset 0
	.cfi_restore w30
	.cfi_restore w29
	ret
LBB2_11:
	.cfi_restore_state
Lloh44:
	adrp	x8, __ZN4core3fmt3num3imp52_$LT$impl$u20$core..fmt..Display$u20$for$u20$u32$GT$3fmt17h86eb4398173913faE@GOTPAGE
Lloh45:
	ldr	x8, [x8, __ZN4core3fmt3num3imp52_$LT$impl$u20$core..fmt..Display$u20$for$u20$u32$GT$3fmt17h86eb4398173913faE@GOTPAGEOFF]
	sub	x9, x29, #52
	stp	x9, x8, [sp]
Lloh46:
	adrp	x8, l___unnamed_1@PAGE
Lloh47:
	add	x8, x8, l___unnamed_1@PAGEOFF
	mov	w9, #1
	stp	x8, x9, [x29, #-48]
	stp	x9, xzr, [x29, #-24]
	mov	x8, sp
	stur	x8, [x29, #-32]
Lloh48:
	adrp	x1, l___unnamed_2@PAGE
Lloh49:
	add	x1, x1, l___unnamed_2@PAGEOFF
	sub	x0, x29, #48
	bl	__ZN4core9panicking9panic_fmt17h3bbf9265d206434cE
	.loh AdrpAdd	Lloh22, Lloh23
	.loh AdrpAdd	Lloh26, Lloh27
	.loh AdrpLdrGot	Lloh24, Lloh25
	.loh AdrpAdd	Lloh30, Lloh31
	.loh AdrpLdrGot	Lloh28, Lloh29
	.loh AdrpAdd	Lloh34, Lloh35
	.loh AdrpLdrGot	Lloh32, Lloh33
	.loh AdrpAdd	Lloh38, Lloh39
	.loh AdrpLdrGot	Lloh36, Lloh37
	.loh AdrpAdd	Lloh42, Lloh43
	.loh AdrpAdd	Lloh40, Lloh41
	.loh AdrpAdd	Lloh48, Lloh49
	.loh AdrpAdd	Lloh46, Lloh47
	.loh AdrpLdrGot	Lloh44, Lloh45
	.cfi_endproc
	.section	__TEXT,__const
LJTI2_0:
	.byte	(LBB2_2-LBB2_2)>>2
	.byte	(LBB2_3-LBB2_2)>>2
	.byte	(LBB2_4-LBB2_2)>>2
	.byte	(LBB2_6-LBB2_2)>>2
	.byte	(LBB2_8-LBB2_2)>>2

	.section	__TEXT,__text,regular,pure_instructions
	.globl	__ZN60_$LT$mylib..bytecode..Opcode$u20$as$u20$core..fmt..Debug$GT$3fmt17hc4057e9d15066907E
	.p2align	2
__ZN60_$LT$mylib..bytecode..Opcode$u20$as$u20$core..fmt..Debug$GT$3fmt17hc4057e9d15066907E:
	.cfi_startproc
	mov	x8, x1
	ldrb	w9, [x0]
	lsl	x9, x9, #3
Lloh50:
	adrp	x10, l_switch.table._ZN60_$LT$mylib..bytecode..Opcode$u20$as$u20$core..fmt..Debug$GT$3fmt17hc4057e9d15066907E@PAGE
Lloh51:
	add	x10, x10, l_switch.table._ZN60_$LT$mylib..bytecode..Opcode$u20$as$u20$core..fmt..Debug$GT$3fmt17hc4057e9d15066907E@PAGEOFF
	ldr	x2, [x10, x9]
Lloh52:
	adrp	x10, l_switch.table._ZN60_$LT$mylib..bytecode..Opcode$u20$as$u20$core..fmt..Debug$GT$3fmt17hc4057e9d15066907E.1@PAGE
Lloh53:
	add	x10, x10, l_switch.table._ZN60_$LT$mylib..bytecode..Opcode$u20$as$u20$core..fmt..Debug$GT$3fmt17hc4057e9d15066907E.1@PAGEOFF
	ldr	x1, [x10, x9]
	mov	x0, x8
	b	__ZN4core3fmt9Formatter9write_str17hf28662d815207628E
	.loh AdrpAdd	Lloh52, Lloh53
	.loh AdrpAdd	Lloh50, Lloh51
	.cfi_endproc

	.section	__TEXT,__const
	.p2align	3, 0x0
l___unnamed_11:
	.byte	0

l___unnamed_12:
	.ascii	"Unknown Opcode value: "

	.section	__DATA,__const
	.p2align	3, 0x0
l___unnamed_1:
	.quad	l___unnamed_12
	.asciz	"\026\000\000\000\000\000\000"

	.section	__TEXT,__const
l___unnamed_13:
	.ascii	"src/bytecode.rs"

	.section	__DATA,__const
	.p2align	3, 0x0
l___unnamed_2:
	.quad	l___unnamed_13
	.asciz	"\017\000\000\000\000\000\000\000 \000\000\000\022\000\000"

	.p2align	3, 0x0
l___unnamed_4:
	.quad	l___unnamed_13
	.asciz	"\017\000\000\000\000\000\000\000\340\000\000\000\025\000\000"

	.p2align	3, 0x0
l___unnamed_5:
	.quad	l___unnamed_13
	.asciz	"\017\000\000\000\000\000\000\000\375\000\000\000\027\000\000"

	.section	__TEXT,__const
l___unnamed_14:
	.byte	10

	.section	__DATA,__const
	.p2align	3, 0x0
l___unnamed_3:
	.quad	l___unnamed_11
	.space	8
	.quad	l___unnamed_14
	.asciz	"\001\000\000\000\000\000\000"

	.section	__TEXT,__const
l___unnamed_15:
	.ascii	"LOAD: memory["

	.section	__TEXT,__literal4,4byte_literals
l___unnamed_16:
	.ascii	"] = "

	.section	__DATA,__const
	.p2align	3, 0x0
l___unnamed_6:
	.quad	l___unnamed_15
	.asciz	"\r\000\000\000\000\000\000"
	.quad	l___unnamed_16
	.asciz	"\004\000\000\000\000\000\000"
	.quad	l___unnamed_14
	.asciz	"\001\000\000\000\000\000\000"

	.section	__TEXT,__const
l___unnamed_17:
	.ascii	"ADD: memory["

l___unnamed_18:
	.ascii	"] = memory["

l___unnamed_19:
	.ascii	"] + memory["

l___unnamed_20:
	.ascii	"]\n"

	.section	__DATA,__const
	.p2align	3, 0x0
l___unnamed_7:
	.quad	l___unnamed_17
	.asciz	"\f\000\000\000\000\000\000"
	.quad	l___unnamed_18
	.asciz	"\013\000\000\000\000\000\000"
	.quad	l___unnamed_19
	.asciz	"\013\000\000\000\000\000\000"
	.quad	l___unnamed_20
	.asciz	"\002\000\000\000\000\000\000"

	.section	__TEXT,__const
l___unnamed_21:
	.ascii	"JMPNE: if memory["

l___unnamed_22:
	.ascii	"] != memory["

l___unnamed_23:
	.ascii	"] pc = "

	.section	__DATA,__const
	.p2align	3, 0x0
l___unnamed_8:
	.quad	l___unnamed_21
	.asciz	"\021\000\000\000\000\000\000"
	.quad	l___unnamed_22
	.asciz	"\f\000\000\000\000\000\000"
	.quad	l___unnamed_23
	.asciz	"\007\000\000\000\000\000\000"
	.quad	l___unnamed_14
	.asciz	"\001\000\000\000\000\000\000"

	.section	__TEXT,__const
l___unnamed_24:
	.ascii	"PRINT: print memory["

	.section	__DATA,__const
	.p2align	3, 0x0
l___unnamed_9:
	.quad	l___unnamed_24
	.asciz	"\024\000\000\000\000\000\000"
	.quad	l___unnamed_20
	.asciz	"\002\000\000\000\000\000\000"

	.section	__TEXT,__literal4,4byte_literals
l___unnamed_25:
	.ascii	"RET\n"

	.section	__DATA,__const
	.p2align	3, 0x0
l___unnamed_10:
	.quad	l___unnamed_25
	.asciz	"\004\000\000\000\000\000\000"

	.section	__TEXT,__literal4,4byte_literals
l___unnamed_26:
	.ascii	"LOAD"

	.section	__TEXT,__const
l___unnamed_27:
	.ascii	"ADD"

l___unnamed_28:
	.ascii	"JMPNE"

l___unnamed_29:
	.ascii	"PRINT"

l___unnamed_30:
	.ascii	"RET"

	.p2align	3, 0x0
l_switch.table._ZN60_$LT$mylib..bytecode..Opcode$u20$as$u20$core..fmt..Debug$GT$3fmt17hc4057e9d15066907E:
	.quad	4
	.quad	3
	.quad	5
	.quad	5
	.quad	3

	.section	__DATA,__const
	.p2align	3, 0x0
l_switch.table._ZN60_$LT$mylib..bytecode..Opcode$u20$as$u20$core..fmt..Debug$GT$3fmt17hc4057e9d15066907E.1:
	.quad	l___unnamed_26
	.quad	l___unnamed_27
	.quad	l___unnamed_28
	.quad	l___unnamed_29
	.quad	l___unnamed_30

.subsections_via_symbols
