	.section	__TEXT,__text,regular,pure_instructions
	.build_version macos, 11, 0
	.file	1 "/Users/kawar/GitHub/rust-instruction-dispatch/Rust/direct-tail-call-threading" "src/main.rs"
	.p2align	2
__ZN3std10sys_common9backtrace28__rust_begin_short_backtrace17h63358d47424468b3E:
Lfunc_begin0:
	.file	2 "/rustc/a28077b28a02b92985b3a3faecf92813155f1ea1/library/std/src/sys_common" "backtrace.rs"
	.loc	2 150 0
	.cfi_startproc
	stp	x29, x30, [sp, #-16]!
	.cfi_def_cfa_offset 16
	mov	x29, sp
	.cfi_def_cfa w29, 16
	.cfi_offset w30, -8
	.cfi_offset w29, -16
Ltmp16:
	.file	3 "/rustc/a28077b28a02b92985b3a3faecf92813155f1ea1/library/core/src/ops" "function.rs"
	.loc	3 250 5 prologue_end
	blr	x0
Ltmp17:
	.file	4 "/rustc/a28077b28a02b92985b3a3faecf92813155f1ea1/library/core/src" "hint.rs"
	.loc	4 286 5
	; InlineAsm Start
	; InlineAsm End
Ltmp18:
	.cfi_def_cfa wsp, 16
	.loc	2 160 2 epilogue_begin
	ldp	x29, x30, [sp], #16
	.cfi_def_cfa_offset 0
	.cfi_restore w30
	.cfi_restore w29
	ret
Ltmp19:
Lfunc_end0:
	.cfi_endproc

	.private_extern	__ZN3std2rt10lang_start17h22240e7ee2a9365cE
	.globl	__ZN3std2rt10lang_start17h22240e7ee2a9365cE
	.p2align	2
__ZN3std2rt10lang_start17h22240e7ee2a9365cE:
Lfunc_begin1:
	.file	5 "/rustc/a28077b28a02b92985b3a3faecf92813155f1ea1/library/std/src" "rt.rs"
	.loc	5 159 0
	.cfi_startproc
	sub	sp, sp, #32
	.cfi_def_cfa_offset 32
	stp	x29, x30, [sp, #16]
	add	x29, sp, #16
	.cfi_def_cfa w29, 16
	.cfi_offset w30, -8
	.cfi_offset w29, -16
	mov	x4, x3
Ltmp20:
	mov	x3, x2
Ltmp21:
	mov	x2, x1
Ltmp22:
	.loc	5 166 10 prologue_end
	str	x0, [sp, #8]
	.loc	5 165 17
Lloh0:
	adrp	x1, l___unnamed_1@PAGE
Lloh1:
	add	x1, x1, l___unnamed_1@PAGEOFF
	add	x0, sp, #8
Ltmp23:
	bl	__ZN3std2rt19lang_start_internal17h5f00c09289a72e67E
Ltmp24:
	.cfi_def_cfa wsp, 32
	.loc	5 172 2 epilogue_begin
	ldp	x29, x30, [sp, #16]
	add	sp, sp, #32
	.cfi_def_cfa_offset 0
	.cfi_restore w30
	.cfi_restore w29
	ret
Ltmp25:
	.loh AdrpAdd	Lloh0, Lloh1
Lfunc_end1:
	.cfi_endproc

	.p2align	2
__ZN3std2rt10lang_start28_$u7b$$u7b$closure$u7d$$u7d$17h77a0d768a5d51dcaE:
Lfunc_begin2:
	.loc	5 166 0
	.cfi_startproc
	stp	x29, x30, [sp, #-16]!
	.cfi_def_cfa_offset 16
	mov	x29, sp
	.cfi_def_cfa w29, 16
	.cfi_offset w30, -8
	.cfi_offset w29, -16
Ltmp26:
	.loc	5 166 77 prologue_end
	ldr	x0, [x0]
Ltmp27:
	.loc	5 166 18 is_stmt 0
	bl	__ZN3std10sys_common9backtrace28__rust_begin_short_backtrace17h63358d47424468b3E
	.loc	5 166 100
	mov	w0, #0
	.cfi_def_cfa wsp, 16
	.loc	5 166 100 epilogue_begin
	ldp	x29, x30, [sp], #16
	.cfi_def_cfa_offset 0
	.cfi_restore w30
	.cfi_restore w29
	ret
Ltmp28:
Lfunc_end2:
	.cfi_endproc

	.p2align	2
__ZN4core3ops8function6FnOnce40call_once$u7b$$u7b$vtable.shim$u7d$$u7d$17h60edd35cd0c5164eE:
Lfunc_begin3:
	.loc	3 250 0 is_stmt 1
	.cfi_startproc
	stp	x29, x30, [sp, #-16]!
	.cfi_def_cfa_offset 16
	mov	x29, sp
	.cfi_def_cfa w29, 16
	.cfi_offset w30, -8
	.cfi_offset w29, -16
Ltmp29:
	.loc	3 250 5 prologue_end
	ldr	x0, [x0]
Ltmp30:
	.loc	5 166 18
	bl	__ZN3std10sys_common9backtrace28__rust_begin_short_backtrace17h63358d47424468b3E
Ltmp31:
	.loc	3 250 5
	mov	w0, #0
	.cfi_def_cfa wsp, 16
	.loc	3 250 5 epilogue_begin is_stmt 0
	ldp	x29, x30, [sp], #16
	.cfi_def_cfa_offset 0
	.cfi_restore w30
	.cfi_restore w29
	ret
Ltmp32:
Lfunc_end3:
	.cfi_endproc

	.p2align	2
__ZN4core3ptr85drop_in_place$LT$std..rt..lang_start$LT$$LP$$RP$$GT$..$u7b$$u7b$closure$u7d$$u7d$$GT$17hedbee9a88b3da107E:
Lfunc_begin4:
	.cfi_startproc
	.file	6 "/rustc/a28077b28a02b92985b3a3faecf92813155f1ea1/library/core/src/ptr" "mod.rs"
	.loc	6 497 1 prologue_end is_stmt 1
	ret
Ltmp33:
Lfunc_end4:
	.cfi_endproc

	.p2align	2
__ZN4core3ptr92drop_in_place$LT$alloc..vec..Vec$LT$mylib..internal_instruction..InternalInstruction$GT$$GT$17hb3a1aff749eae7b9E:
Lfunc_begin5:
	.cfi_startproc
	.file	7 "/rustc/a28077b28a02b92985b3a3faecf92813155f1ea1/library/alloc/src" "raw_vec.rs"
	.loc	7 240 25 prologue_end
	cbz	x1, LBB5_2
Ltmp34:
	.file	8 "/rustc/a28077b28a02b92985b3a3faecf92813155f1ea1/library/core/src/num" "mod.rs"
	.loc	8 1266 5
	add	x8, x1, x1, lsl #1
	lsl	x1, x8, #3
Ltmp35:
	.file	9 "/rustc/a28077b28a02b92985b3a3faecf92813155f1ea1/library/alloc/src" "alloc.rs"
	.loc	9 117 14
	mov	w2, #8
	b	___rust_dealloc
Ltmp36:
LBB5_2:
	.loc	6 497 1
	ret
Ltmp37:
Lfunc_end5:
	.cfi_endproc
	.file	10 "/rustc/a28077b28a02b92985b3a3faecf92813155f1ea1/library/core/src/num" "uint_macros.rs"

	.section	__TEXT,__literal16,16byte_literals
	.p2align	4, 0x0
lCPI6_0:
	.long	0
	.long	16777232
	.long	50331632
	.long	17
lCPI6_2:
	.quad	7
	.quad	0
lCPI6_3:
	.quad	0
	.quad	10
	.section	__TEXT,__literal8,8byte_literals
	.p2align	3, 0x0
lCPI6_1:
	.long	131122
	.long	3
lCPI6_4:
	.long	32
	.long	0
	.section	__TEXT,__text,regular,pure_instructions
	.p2align	2
__ZN26direct_tail_call_threading4main17h4f40354104ead600E:
Lfunc_begin6:
	.loc	1 13 0
	.cfi_startproc
	.cfi_personality 155, _rust_eh_personality
	.cfi_lsda 16, Lexception0
	sub	sp, sp, #432
	.cfi_def_cfa_offset 432
	stp	d9, d8, [sp, #320]
	stp	x28, x27, [sp, #336]
	stp	x26, x25, [sp, #352]
	stp	x24, x23, [sp, #368]
	stp	x22, x21, [sp, #384]
	stp	x20, x19, [sp, #400]
	stp	x29, x30, [sp, #416]
	add	x29, sp, #416
	.cfi_def_cfa w29, 16
	.cfi_offset w30, -8
	.cfi_offset w29, -16
	.cfi_offset w19, -24
	.cfi_offset w20, -32
	.cfi_offset w21, -40
	.cfi_offset w22, -48
	.cfi_offset w23, -56
	.cfi_offset w24, -64
	.cfi_offset w25, -72
	.cfi_offset w26, -80
	.cfi_offset w27, -88
	.cfi_offset w28, -96
	.cfi_offset b8, -104
	.cfi_offset b9, -112
	.cfi_remember_state
Ltmp38:
	.loc	1 24 9 prologue_end
	mov	w0, #4
	bl	__ZN5mylib8bytecode11make_opcode17h2f7244974f83716aE
Lloh2:
	adrp	x8, lCPI6_0@PAGE
	.loc	1 14 23
Lloh3:
	ldr	q0, [x8, lCPI6_0@PAGEOFF]
	str	q0, [sp, #16]
Lloh4:
	adrp	x8, lCPI6_1@PAGE
Lloh5:
	ldr	d0, [x8, lCPI6_1@PAGEOFF]
	str	d0, [sp, #32]
	str	w0, [sp, #40]
Ltmp39:
	.loc	6 1549 9
Lloh6:
	adrp	x8, ___rust_no_alloc_shim_is_unstable@GOTPAGE
Lloh7:
	ldr	x8, [x8, ___rust_no_alloc_shim_is_unstable@GOTPAGEOFF]
Ltmp40:
	ldrb	wzr, [x8]
Ltmp41:
	.loc	9 98 9
	mov	w0, #168
	mov	w1, #8
	bl	___rust_alloc
Ltmp42:
	.loc	7 187 23
	cbz	x0, LBB6_15
Ltmp43:
	.file	11 "/rustc/a28077b28a02b92985b3a3faecf92813155f1ea1/library/alloc/src/vec" "mod.rs"
	.loc	11 670 9
	str	x0, [sp, #48]
Lloh8:
	adrp	x8, lCPI6_2@PAGE
Lloh9:
	ldr	q0, [x8, lCPI6_2@PAGEOFF]
	stur	q0, [sp, #56]
Ltmp44:
	.loc	1 28 28
	str	xzr, [sp, #88]
Ltmp0:
Ltmp45:
	.loc	1 40 9
	add	x0, sp, #16
	add	x2, sp, #48
	mov	w1, #7
	bl	__ZN5mylib7convert7convert17h4765e155b3d55af0E
Ltmp1:
Ltmp46:
	.loc	1 0 9 is_stmt 0
	mov	x19, #0
	mov	x20, #-10
	mov	w21, #51712
	movk	w21, #15258, lsl #16
	add	x23, sp, #160
	mov	w24, #2
Lloh10:
	adrp	x8, lCPI6_3@PAGE
Lloh11:
	ldr	q0, [x8, lCPI6_3@PAGEOFF]
	str	q0, [sp]
Lloh12:
	adrp	x8, lCPI6_4@PAGE
Lloh13:
	ldr	d8, [x8, lCPI6_4@PAGEOFF]
	mov	w25, #3
	add	x26, sp, #200
	mov	w27, #1
	add	x28, sp, #96
Lloh14:
	adrp	x22, l___unnamed_2@PAGE
Lloh15:
	add	x22, x22, l___unnamed_2@PAGEOFF
Ltmp47:
LBB6_3:
	.loc	1 54 16 is_stmt 1
	cbnz	x20, LBB6_5
Ltmp48:
	.loc	1 0 16 is_stmt 0
	mov	x19, #0
	.loc	1 55 17 is_stmt 1
	str	xzr, [sp, #88]
Ltmp49:
LBB6_5:
Ltmp2:
	.loc	1 57 19
	bl	__ZN3std4time7Instant3now17he2ae06a93987d203E
Ltmp3:
Ltmp50:
	.loc	1 57 13 is_stmt 0
	str	x0, [sp, #72]
	str	w1, [sp, #80]
Ltmp51:
	.loc	7 223 9 is_stmt 1
	ldr	x0, [sp, #48]
Ltmp52:
	.loc	11 2663 55
	ldr	x1, [sp, #64]
Ltmp53:
Ltmp4:
	.loc	1 59 17
	bl	__ZN5mylib20internal_instruction7vm_loop17h2a171cae248ecd5dE
Ltmp5:
Ltmp54:
Ltmp6:
	.loc	1 61 24
	add	x0, sp, #72
	bl	__ZN3std4time7Instant7elapsed17ha7b68d610cd9fab7E
Ltmp7:
Ltmp55:
	.file	12 "/rustc/a28077b28a02b92985b3a3faecf92813155f1ea1/library/core/src" "time.rs"
	.loc	12 461 9
	mul	x8, x0, x21
	add	x8, x8, w1, uxtw
Ltmp56:
	.loc	1 61 13
	add	x19, x8, x19
Ltmp57:
	str	x19, [sp, #88]
Ltmp8:
	.loc	1 62 48
	add	x0, sp, #72
	bl	__ZN3std4time7Instant7elapsed17ha7b68d610cd9fab7E
Ltmp9:
Ltmp58:
	.loc	12 461 9
	umulh	x8, x0, x21
	mul	x9, x0, x21
	adds	x9, x9, w1, uxtw
	cinc	x8, x8, hs
	stp	x9, x8, [sp, #160]
Ltmp59:
	.loc	1 62 13
	str	x23, [sp, #96]
Lloh16:
	adrp	x8, __ZN4core3fmt3num53_$LT$impl$u20$core..fmt..Display$u20$for$u20$u128$GT$3fmt17h1e84b72d48a6565bE@GOTPAGE
Lloh17:
	ldr	x8, [x8, __ZN4core3fmt3num53_$LT$impl$u20$core..fmt..Display$u20$for$u20$u128$GT$3fmt17h1e84b72d48a6565bE@GOTPAGEOFF]
	stp	x8, x22, [sp, #104]
	str	x24, [sp, #200]
	ldr	q0, [sp]
	stur	q0, [sp, #216]
	str	xzr, [sp, #232]
	str	d8, [sp, #240]
	strb	w25, [sp, #248]
Ltmp60:
	.file	13 "/rustc/a28077b28a02b92985b3a3faecf92813155f1ea1/library/core/src/fmt" "mod.rs"
	.loc	13 348 9
	stp	x24, x28, [sp, #120]
	stp	x26, x27, [sp, #144]
	str	x27, [sp, #136]
Ltmp61:
Ltmp10:
	.loc	1 62 13
	add	x0, sp, #112
	bl	__ZN3std2io5stdio6_print17h427042eafe0edf22E
Ltmp62:
Ltmp11:
	.file	14 "/rustc/a28077b28a02b92985b3a3faecf92813155f1ea1/library/core/src" "cmp.rs"
	.loc	14 1535 5
	add	x20, x20, #1
Ltmp63:
	.file	15 "/rustc/a28077b28a02b92985b3a3faecf92813155f1ea1/library/core/src/iter" "range.rs"
	.loc	15 729 12
	cmp	x20, #100
	b.ne	LBB6_3
Ltmp64:
	.loc	15 0 12 is_stmt 0
	mov	x8, #55051
	movk	x8, #28835, lsl #16
	movk	x8, #2621, lsl #32
	movk	x8, #41943, lsl #48
	.loc	1 64 9 is_stmt 1
	smulh	x8, x19, x8
	add	x8, x8, x19
	asr	x9, x8, #6
	add	x8, x9, x8, lsr #63
Ltmp65:
	str	x8, [sp, #88]
	.loc	1 65 9
Lloh18:
	adrp	x8, __ZN4core3fmt3num3imp52_$LT$impl$u20$core..fmt..Display$u20$for$u20$i64$GT$3fmt17hab6ce112df3982deE@GOTPAGE
Ltmp66:
Lloh19:
	ldr	x8, [x8, __ZN4core3fmt3num3imp52_$LT$impl$u20$core..fmt..Display$u20$for$u20$i64$GT$3fmt17hab6ce112df3982deE@GOTPAGEOFF]
Lloh20:
	adrp	x9, __ZN26direct_tail_call_threading17NUM_OF_ITERATIONS17hf456270db62f6890E@PAGE
Lloh21:
	add	x9, x9, __ZN26direct_tail_call_threading17NUM_OF_ITERATIONS17hf456270db62f6890E@PAGEOFF
	stp	x9, x8, [sp, #160]
	add	x9, sp, #88
	stp	x9, x8, [sp, #176]
	mov	w8, #2
	str	x8, [sp, #200]
	str	x8, [sp, #216]
	str	xzr, [sp, #232]
	str	d8, [sp, #240]
	mov	w9, #3
	strb	w9, [sp, #248]
	str	x8, [sp, #256]
	ldr	q0, [sp]
	add	x10, sp, #17
	stur	q0, [x10, #255]
	mov	w10, #1
	str	x10, [sp, #288]
	str	d8, [sp, #296]
	strb	w9, [sp, #304]
Ltmp67:
	.loc	13 348 9
Lloh22:
	adrp	x10, l___unnamed_3@PAGE
Lloh23:
	add	x10, x10, l___unnamed_3@PAGEOFF
Ltmp68:
	stp	x10, x9, [sp, #112]
	add	x9, sp, #200
	stp	x9, x8, [sp, #144]
	add	x9, sp, #160
	stp	x9, x8, [sp, #128]
Ltmp69:
Ltmp13:
	.loc	1 65 9
	add	x0, sp, #112
	bl	__ZN3std2io5stdio6_print17h427042eafe0edf22E
Ltmp70:
Ltmp14:
	.loc	1 72 1
	ldr	x8, [sp, #56]
Ltmp71:
	.loc	7 240 25
	cbz	x8, LBB6_14
Ltmp72:
	.loc	1 72 1
	ldr	x0, [sp, #48]
Ltmp73:
	.loc	8 1266 5
	add	x8, x8, x8, lsl #1
Ltmp74:
	lsl	x1, x8, #3
Ltmp75:
	.loc	9 117 14
	mov	w2, #8
	bl	___rust_dealloc
Ltmp76:
LBB6_14:
	.cfi_def_cfa wsp, 432
	.loc	1 72 2 epilogue_begin
	ldp	x29, x30, [sp, #416]
	ldp	x20, x19, [sp, #400]
	ldp	x22, x21, [sp, #384]
	ldp	x24, x23, [sp, #368]
	ldp	x26, x25, [sp, #352]
	ldp	x28, x27, [sp, #336]
	ldp	d9, d8, [sp, #320]
	add	sp, sp, #432
	.cfi_def_cfa_offset 0
	.cfi_restore w30
	.cfi_restore w29
	.cfi_restore w19
	.cfi_restore w20
	.cfi_restore w21
	.cfi_restore w22
	.cfi_restore w23
	.cfi_restore w24
	.cfi_restore w25
	.cfi_restore w26
	.cfi_restore w27
	.cfi_restore w28
	.cfi_restore b8
	.cfi_restore b9
	ret
LBB6_15:
	.cfi_restore_state
Ltmp77:
	.loc	7 189 27
	mov	w0, #8
	mov	w1, #168
	bl	__ZN5alloc5alloc18handle_alloc_error17h389e70497ee0e1d7E
Ltmp78:
LBB6_16:
Ltmp15:
	.loc	7 0 27 is_stmt 0
	mov	x19, x0
	.loc	1 72 1 is_stmt 1
	ldp	x0, x1, [sp, #48]
	bl	__ZN4core3ptr92drop_in_place$LT$alloc..vec..Vec$LT$mylib..internal_instruction..InternalInstruction$GT$$GT$17hb3a1aff749eae7b9E
	mov	x0, x19
	bl	__Unwind_Resume
LBB6_17:
Ltmp12:
	.loc	1 0 1 is_stmt 0
	mov	x19, x0
	.loc	1 72 1
	ldp	x0, x1, [sp, #48]
	bl	__ZN4core3ptr92drop_in_place$LT$alloc..vec..Vec$LT$mylib..internal_instruction..InternalInstruction$GT$$GT$17hb3a1aff749eae7b9E
	mov	x0, x19
	bl	__Unwind_Resume
Ltmp79:
	.loh AdrpLdrGot	Lloh6, Lloh7
	.loh AdrpAdrp	Lloh4, Lloh6
	.loh AdrpLdr	Lloh4, Lloh5
	.loh AdrpAdrp	Lloh2, Lloh4
	.loh AdrpLdr	Lloh2, Lloh3
	.loh AdrpLdr	Lloh8, Lloh9
	.loh AdrpAdd	Lloh14, Lloh15
	.loh AdrpLdr	Lloh12, Lloh13
	.loh AdrpAdrp	Lloh10, Lloh12
	.loh AdrpLdr	Lloh10, Lloh11
	.loh AdrpLdrGot	Lloh16, Lloh17
	.loh AdrpAdd	Lloh22, Lloh23
	.loh AdrpAdd	Lloh20, Lloh21
	.loh AdrpLdrGot	Lloh18, Lloh19
Lfunc_end6:
	.cfi_endproc
	.file	16 "/rustc/a28077b28a02b92985b3a3faecf92813155f1ea1/library/std/src" "macros.rs"
	.section	__TEXT,__gcc_except_tab
	.p2align	2, 0x0
GCC_except_table6:
Lexception0:
	.byte	255
	.byte	255
	.byte	1
	.uleb128 Lcst_end0-Lcst_begin0
Lcst_begin0:
	.uleb128 Lfunc_begin6-Lfunc_begin6
	.uleb128 Ltmp0-Lfunc_begin6
	.byte	0
	.byte	0
	.uleb128 Ltmp0-Lfunc_begin6
	.uleb128 Ltmp1-Ltmp0
	.uleb128 Ltmp15-Lfunc_begin6
	.byte	0
	.uleb128 Ltmp2-Lfunc_begin6
	.uleb128 Ltmp11-Ltmp2
	.uleb128 Ltmp12-Lfunc_begin6
	.byte	0
	.uleb128 Ltmp13-Lfunc_begin6
	.uleb128 Ltmp14-Ltmp13
	.uleb128 Ltmp15-Lfunc_begin6
	.byte	0
	.uleb128 Ltmp14-Lfunc_begin6
	.uleb128 Lfunc_end6-Ltmp14
	.byte	0
	.byte	0
Lcst_end0:
	.p2align	2, 0x0

	.section	__TEXT,__text,regular,pure_instructions
	.globl	_main
	.p2align	2
_main:
Lfunc_begin7:
	.cfi_startproc
	sub	sp, sp, #32
	stp	x29, x30, [sp, #16]
	add	x29, sp, #16
	.cfi_def_cfa w29, 16
	.cfi_offset w30, -8
	.cfi_offset w29, -16
	mov	x3, x1
	sxtw	x2, w0
Lloh24:
	adrp	x8, __ZN26direct_tail_call_threading4main17h4f40354104ead600E@PAGE
Lloh25:
	add	x8, x8, __ZN26direct_tail_call_threading4main17h4f40354104ead600E@PAGEOFF
	str	x8, [sp, #8]
Lloh26:
	adrp	x1, l___unnamed_1@PAGE
Lloh27:
	add	x1, x1, l___unnamed_1@PAGEOFF
	add	x0, sp, #8
	mov	w4, #0
	bl	__ZN3std2rt19lang_start_internal17h5f00c09289a72e67E
	ldp	x29, x30, [sp, #16]
	add	sp, sp, #32
	ret
	.loh AdrpAdd	Lloh26, Lloh27
	.loh AdrpAdd	Lloh24, Lloh25
Lfunc_end7:
	.cfi_endproc

	.section	__DATA,__const
	.p2align	3, 0x0
l___unnamed_1:
	.quad	__ZN4core3ptr85drop_in_place$LT$std..rt..lang_start$LT$$LP$$RP$$GT$..$u7b$$u7b$closure$u7d$$u7d$$GT$17hedbee9a88b3da107E
	.asciz	"\b\000\000\000\000\000\000\000\b\000\000\000\000\000\000"
	.quad	__ZN4core3ops8function6FnOnce40call_once$u7b$$u7b$vtable.shim$u7d$$u7d$17h60edd35cd0c5164eE
	.quad	__ZN3std2rt10lang_start28_$u7b$$u7b$closure$u7d$$u7d$17h77a0d768a5d51dcaE
	.quad	__ZN3std2rt10lang_start28_$u7b$$u7b$closure$u7d$$u7d$17h77a0d768a5d51dcaE

	.section	__TEXT,__const
	.p2align	3, 0x0
__ZN26direct_tail_call_threading17NUM_OF_ITERATIONS17hf456270db62f6890E:
	.asciz	"d\000\000\000\000\000\000"

l___unnamed_4:
	.ascii	"Average of "

l___unnamed_5:
	.ascii	" results: "

	.section	__TEXT,__literal4,4byte_literals
l___unnamed_6:
	.ascii	" ns\n"

	.section	__DATA,__const
	.p2align	3, 0x0
l___unnamed_3:
	.quad	l___unnamed_4
	.asciz	"\013\000\000\000\000\000\000"
	.quad	l___unnamed_5
	.asciz	"\n\000\000\000\000\000\000"
	.quad	l___unnamed_6
	.asciz	"\004\000\000\000\000\000\000"

	.section	__TEXT,__const
l___unnamed_7:
	.ascii	"Time elapsed: "

	.section	__DATA,__const
	.p2align	3, 0x0
l___unnamed_2:
	.quad	l___unnamed_7
	.asciz	"\016\000\000\000\000\000\000"
	.quad	l___unnamed_6
	.asciz	"\004\000\000\000\000\000\000"

	.section	__DATA,__const
Lsec_end0:
	.section	__TEXT,__const
Lsec_end1:
	.section	__TEXT,__text,regular,pure_instructions
Lsec_end2: