	.text
	.intel_syntax noprefix
	.file	"direct_tail_call_threading.28d358767141898b-cgu.0"
	.file	1 "/mnt/c/Users/kawar/Documents/GitHub/rust-instruction-dispatch/Rust/direct-tail-call-threading" "src/main.rs"
	.section	.text._ZN3std10sys_common9backtrace28__rust_begin_short_backtrace17h97deda9dd1755145E,"ax",@progbits
	.p2align	4, 0x90
	.type	_ZN3std10sys_common9backtrace28__rust_begin_short_backtrace17h97deda9dd1755145E,@function
_ZN3std10sys_common9backtrace28__rust_begin_short_backtrace17h97deda9dd1755145E:
.Lfunc_begin0:
	.file	2 "/rustc/a28077b28a02b92985b3a3faecf92813155f1ea1/library/std/src/sys_common" "backtrace.rs"
	.loc	2 150 0
	.cfi_startproc
	push	rax
	.cfi_def_cfa_offset 16
.Ltmp0:
	.file	3 "/rustc/a28077b28a02b92985b3a3faecf92813155f1ea1/library/core/src/ops" "function.rs"
	.loc	3 250 5 prologue_end
	call	rdi
.Ltmp1:
	.file	4 "/rustc/a28077b28a02b92985b3a3faecf92813155f1ea1/library/core/src" "hint.rs"
	.loc	4 286 5
	#APP
	#NO_APP
.Ltmp2:
	.loc	2 160 2 epilogue_begin
	pop	rax
	.cfi_def_cfa_offset 8
	ret
.Ltmp3:
.Lfunc_end0:
	.size	_ZN3std10sys_common9backtrace28__rust_begin_short_backtrace17h97deda9dd1755145E, .Lfunc_end0-_ZN3std10sys_common9backtrace28__rust_begin_short_backtrace17h97deda9dd1755145E
	.cfi_endproc

	.section	.text._ZN3std2rt10lang_start17h0e69b04978f06d00E,"ax",@progbits
	.hidden	_ZN3std2rt10lang_start17h0e69b04978f06d00E
	.globl	_ZN3std2rt10lang_start17h0e69b04978f06d00E
	.p2align	4, 0x90
	.type	_ZN3std2rt10lang_start17h0e69b04978f06d00E,@function
_ZN3std2rt10lang_start17h0e69b04978f06d00E:
.Lfunc_begin1:
	.file	5 "/rustc/a28077b28a02b92985b3a3faecf92813155f1ea1/library/std/src" "rt.rs"
	.loc	5 159 0
	.cfi_startproc
	push	rax
	.cfi_def_cfa_offset 16
	mov	r8d, ecx
	mov	rcx, rdx
.Ltmp4:
	mov	rdx, rsi
.Ltmp5:
	.loc	5 166 10 prologue_end
	mov	qword ptr [rsp], rdi
	.loc	5 165 17
	lea	rsi, [rip + .L__unnamed_1]
.Ltmp6:
	.loc	5 0 17 is_stmt 0
	mov	rdi, rsp
.Ltmp7:
	.loc	5 165 17
	call	qword ptr [rip + _ZN3std2rt19lang_start_internal17h2d6a60ec944b523dE@GOTPCREL]
.Ltmp8:
	.loc	5 172 2 epilogue_begin is_stmt 1
	pop	rcx
	.cfi_def_cfa_offset 8
	ret
.Ltmp9:
.Lfunc_end1:
	.size	_ZN3std2rt10lang_start17h0e69b04978f06d00E, .Lfunc_end1-_ZN3std2rt10lang_start17h0e69b04978f06d00E
	.cfi_endproc

	.section	".text._ZN3std2rt10lang_start28_$u7b$$u7b$closure$u7d$$u7d$17h67ce7b349027d320E","ax",@progbits
	.p2align	4, 0x90
	.type	_ZN3std2rt10lang_start28_$u7b$$u7b$closure$u7d$$u7d$17h67ce7b349027d320E,@function
_ZN3std2rt10lang_start28_$u7b$$u7b$closure$u7d$$u7d$17h67ce7b349027d320E:
.Lfunc_begin2:
	.loc	5 166 0
	.cfi_startproc
	push	rax
	.cfi_def_cfa_offset 16
.Ltmp10:
	.loc	5 166 77 prologue_end
	mov	rdi, qword ptr [rdi]
.Ltmp11:
	.loc	5 166 18 is_stmt 0
	call	_ZN3std10sys_common9backtrace28__rust_begin_short_backtrace17h97deda9dd1755145E
	.loc	5 166 100
	xor	eax, eax
	.loc	5 166 100 epilogue_begin
	pop	rcx
	.cfi_def_cfa_offset 8
	ret
.Ltmp12:
.Lfunc_end2:
	.size	_ZN3std2rt10lang_start28_$u7b$$u7b$closure$u7d$$u7d$17h67ce7b349027d320E, .Lfunc_end2-_ZN3std2rt10lang_start28_$u7b$$u7b$closure$u7d$$u7d$17h67ce7b349027d320E
	.cfi_endproc

	.section	".text._ZN4core3ops8function6FnOnce40call_once$u7b$$u7b$vtable.shim$u7d$$u7d$17h185b7d5dacd4320cE","ax",@progbits
	.p2align	4, 0x90
	.type	_ZN4core3ops8function6FnOnce40call_once$u7b$$u7b$vtable.shim$u7d$$u7d$17h185b7d5dacd4320cE,@function
_ZN4core3ops8function6FnOnce40call_once$u7b$$u7b$vtable.shim$u7d$$u7d$17h185b7d5dacd4320cE:
.Lfunc_begin3:
	.loc	3 250 0 is_stmt 1
	.cfi_startproc
	push	rax
	.cfi_def_cfa_offset 16
.Ltmp13:
	.loc	3 250 5 prologue_end
	mov	rdi, qword ptr [rdi]
.Ltmp14:
	.loc	5 166 18
	call	_ZN3std10sys_common9backtrace28__rust_begin_short_backtrace17h97deda9dd1755145E
.Ltmp15:
	.loc	3 250 5
	xor	eax, eax
	.loc	3 250 5 epilogue_begin is_stmt 0
	pop	rcx
	.cfi_def_cfa_offset 8
	ret
.Ltmp16:
.Lfunc_end3:
	.size	_ZN4core3ops8function6FnOnce40call_once$u7b$$u7b$vtable.shim$u7d$$u7d$17h185b7d5dacd4320cE, .Lfunc_end3-_ZN4core3ops8function6FnOnce40call_once$u7b$$u7b$vtable.shim$u7d$$u7d$17h185b7d5dacd4320cE
	.cfi_endproc

	.section	".text._ZN4core3ptr85drop_in_place$LT$std..rt..lang_start$LT$$LP$$RP$$GT$..$u7b$$u7b$closure$u7d$$u7d$$GT$17h77485fe38c654c91E","ax",@progbits
	.p2align	4, 0x90
	.type	_ZN4core3ptr85drop_in_place$LT$std..rt..lang_start$LT$$LP$$RP$$GT$..$u7b$$u7b$closure$u7d$$u7d$$GT$17h77485fe38c654c91E,@function
_ZN4core3ptr85drop_in_place$LT$std..rt..lang_start$LT$$LP$$RP$$GT$..$u7b$$u7b$closure$u7d$$u7d$$GT$17h77485fe38c654c91E:
.Lfunc_begin4:
	.cfi_startproc
	.file	6 "/rustc/a28077b28a02b92985b3a3faecf92813155f1ea1/library/core/src/ptr" "mod.rs"
	.loc	6 497 1 prologue_end is_stmt 1
	ret
.Ltmp17:
.Lfunc_end4:
	.size	_ZN4core3ptr85drop_in_place$LT$std..rt..lang_start$LT$$LP$$RP$$GT$..$u7b$$u7b$closure$u7d$$u7d$$GT$17h77485fe38c654c91E, .Lfunc_end4-_ZN4core3ptr85drop_in_place$LT$std..rt..lang_start$LT$$LP$$RP$$GT$..$u7b$$u7b$closure$u7d$$u7d$$GT$17h77485fe38c654c91E
	.cfi_endproc

	.section	".text._ZN4core3ptr92drop_in_place$LT$alloc..vec..Vec$LT$mylib..internal_instruction..InternalInstruction$GT$$GT$17ha251e78dfc98a1a4E","ax",@progbits
	.p2align	4, 0x90
	.type	_ZN4core3ptr92drop_in_place$LT$alloc..vec..Vec$LT$mylib..internal_instruction..InternalInstruction$GT$$GT$17ha251e78dfc98a1a4E,@function
_ZN4core3ptr92drop_in_place$LT$alloc..vec..Vec$LT$mylib..internal_instruction..InternalInstruction$GT$$GT$17ha251e78dfc98a1a4E:
.Lfunc_begin5:
	.cfi_startproc
	.file	7 "/rustc/a28077b28a02b92985b3a3faecf92813155f1ea1/library/alloc/src" "raw_vec.rs"
	.loc	7 240 25 prologue_end
	test	rsi, rsi
	je	.LBB5_1
.Ltmp18:
	.file	8 "/rustc/a28077b28a02b92985b3a3faecf92813155f1ea1/library/core/src/num" "mod.rs"
	.loc	8 1266 5
	shl	rsi, 3
.Ltmp19:
	lea	rsi, [rsi + 2*rsi]
.Ltmp20:
	.file	9 "/rustc/a28077b28a02b92985b3a3faecf92813155f1ea1/library/alloc/src" "alloc.rs"
	.loc	9 117 14
	mov	edx, 8
	jmp	qword ptr [rip + __rust_dealloc@GOTPCREL]
.Ltmp21:
.LBB5_1:
	.loc	6 497 1
	ret
.Ltmp22:
.Lfunc_end5:
	.size	_ZN4core3ptr92drop_in_place$LT$alloc..vec..Vec$LT$mylib..internal_instruction..InternalInstruction$GT$$GT$17ha251e78dfc98a1a4E, .Lfunc_end5-_ZN4core3ptr92drop_in_place$LT$alloc..vec..Vec$LT$mylib..internal_instruction..InternalInstruction$GT$$GT$17ha251e78dfc98a1a4E
	.cfi_endproc
	.file	10 "/rustc/a28077b28a02b92985b3a3faecf92813155f1ea1/library/core/src/num" "uint_macros.rs"

	.section	.rodata.cst16,"aM",@progbits,16
	.p2align	4, 0x0
.LCPI6_0:
	.long	0
	.long	16777232
	.long	50331632
	.long	17
	.section	.text._ZN26direct_tail_call_threading4main17ha128f3e3fb473bd5E,"ax",@progbits
	.p2align	4, 0x90
	.type	_ZN26direct_tail_call_threading4main17ha128f3e3fb473bd5E,@function
_ZN26direct_tail_call_threading4main17ha128f3e3fb473bd5E:
.Lfunc_begin6:
	.loc	1 13 0
	.cfi_startproc
	.cfi_personality 155, DW.ref.rust_eh_personality
	.cfi_lsda 27, .Lexception0
	push	rbp
	.cfi_def_cfa_offset 16
	push	r15
	.cfi_def_cfa_offset 24
	push	r14
	.cfi_def_cfa_offset 32
	push	r13
	.cfi_def_cfa_offset 40
	push	r12
	.cfi_def_cfa_offset 48
	push	rbx
	.cfi_def_cfa_offset 56
	sub	rsp, 296
	.cfi_def_cfa_offset 352
	.cfi_offset rbx, -56
	.cfi_offset r12, -48
	.cfi_offset r13, -40
	.cfi_offset r14, -32
	.cfi_offset r15, -24
	.cfi_offset rbp, -16
.Ltmp39:
	.loc	1 24 9 prologue_end
	mov	edi, 4
	call	qword ptr [rip + _ZN5mylib8bytecode11make_opcode17hfbc1811f94cea918E@GOTPCREL]
	.loc	1 14 23
	movaps	xmm0, xmmword ptr [rip + .LCPI6_0]
	movaps	xmmword ptr [rsp + 256], xmm0
	movabs	rcx, 12885033010
	mov	qword ptr [rsp + 272], rcx
	mov	dword ptr [rsp + 280], eax
.Ltmp40:
	.loc	6 1549 9
	mov	rax, qword ptr [rip + __rust_no_alloc_shim_is_unstable@GOTPCREL]
.Ltmp41:
	movzx	eax, byte ptr [rax]
.Ltmp42:
	.loc	9 98 9
	mov	edi, 168
	mov	esi, 8
	call	qword ptr [rip + __rust_alloc@GOTPCREL]
.Ltmp43:
	.loc	7 187 29
	test	rax, rax
	.loc	7 187 23 is_stmt 0
	je	.LBB6_18
.Ltmp44:
	.file	11 "/rustc/a28077b28a02b92985b3a3faecf92813155f1ea1/library/alloc/src/vec" "mod.rs"
	.loc	11 670 9 is_stmt 1
	mov	qword ptr [rsp + 8], rax
	mov	qword ptr [rsp + 16], 7
	mov	qword ptr [rsp + 24], 0
.Ltmp45:
	.loc	1 28 28
	mov	qword ptr [rsp], 0
.Ltmp23:
	lea	rdi, [rsp + 256]
	lea	rdx, [rsp + 8]
.Ltmp46:
	.loc	1 40 9
	mov	esi, 7
	call	qword ptr [rip + _ZN5mylib7convert7convert17haa0ffd5eb86b15d3E@GOTPCREL]
.Ltmp24:
.Ltmp47:
	.loc	1 0 9 is_stmt 0
	mov	rbp, -10
	xor	ebx, ebx
	lea	r14, [rsp + 112]
	mov	r12, qword ptr [rip + _ZN3std4time7Instant7elapsed17h41dccf670f2803caE@GOTPCREL]
	lea	r15, [rsp + 32]
	mov	r13, qword ptr [rip + _ZN3std2io5stdio6_print17h63a00216c7cec9b0E@GOTPCREL]
.Ltmp48:
	.p2align	4, 0x90
.LBB6_3:
	.loc	1 54 16 is_stmt 1
	test	rbp, rbp
	jne	.LBB6_5
.Ltmp49:
	.loc	1 55 17
	mov	qword ptr [rsp], 0
	xor	ebx, ebx
.Ltmp50:
.LBB6_5:
.Ltmp25:
	.loc	1 57 19
	call	qword ptr [rip + _ZN3std4time7Instant3now17h2c593f85c314fca8E@GOTPCREL]
.Ltmp26:
.Ltmp51:
	.loc	1 57 13 is_stmt 0
	mov	qword ptr [rsp + 112], rax
	mov	dword ptr [rsp + 120], edx
.Ltmp52:
	.loc	7 223 9 is_stmt 1
	mov	rdi, qword ptr [rsp + 8]
.Ltmp53:
	.loc	11 2663 55
	mov	rsi, qword ptr [rsp + 24]
.Ltmp54:
.Ltmp27:
	.loc	1 59 17
	call	qword ptr [rip + _ZN5mylib20internal_instruction7vm_loop17had34c64781cfe293E@GOTPCREL]
.Ltmp28:
.Ltmp55:
.Ltmp29:
	.loc	1 61 24
	mov	rdi, r14
	call	r12
.Ltmp30:
.Ltmp56:
	.file	12 "/rustc/a28077b28a02b92985b3a3faecf92813155f1ea1/library/core/src" "time.rs"
	.loc	12 461 9
	imul	rax, rax, 1000000000
	.loc	12 461 53 is_stmt 0
	mov	ecx, edx
.Ltmp57:
	.loc	12 461 9
	add	rbx, rcx
.Ltmp58:
	.loc	1 61 13 is_stmt 1
	add	rbx, rax
.Ltmp59:
	mov	qword ptr [rsp], rbx
.Ltmp31:
	.loc	1 62 48
	mov	rdi, r14
	call	r12
.Ltmp32:
.Ltmp60:
	.loc	1 62 0 is_stmt 0
	mov	ecx, edx
.Ltmp61:
	.loc	12 461 9 is_stmt 1
	mov	edx, 1000000000
	mul	rdx
	.loc	12 461 53 is_stmt 0
	mov	ecx, ecx
	.loc	12 461 9
	add	rcx, rax
	adc	rdx, 0
	mov	qword ptr [rsp + 80], rcx
	mov	qword ptr [rsp + 88], rdx
.Ltmp62:
	.loc	1 62 13 is_stmt 1
	lea	rax, [rsp + 80]
	mov	qword ptr [rsp + 128], rax
	mov	rax, qword ptr [rip + _ZN4core3fmt3num53_$LT$impl$u20$core..fmt..Display$u20$for$u20$u128$GT$3fmt17h91d40eeaa0d0ab81E@GOTPCREL]
	mov	qword ptr [rsp + 136], rax
.Ltmp63:
	mov	qword ptr [rsp + 144], 2
	mov	qword ptr [rsp + 160], 0
	mov	qword ptr [rsp + 168], 10
	mov	qword ptr [rsp + 176], 0
	mov	qword ptr [rsp + 184], 32
	mov	byte ptr [rsp + 192], 3
.Ltmp64:
	.file	13 "/rustc/a28077b28a02b92985b3a3faecf92813155f1ea1/library/core/src/fmt" "mod.rs"
	.loc	13 348 9
	lea	rax, [rip + .L__unnamed_2]
	mov	qword ptr [rsp + 32], rax
	mov	qword ptr [rsp + 40], 2
	lea	rax, [rsp + 144]
	mov	qword ptr [rsp + 64], rax
	mov	qword ptr [rsp + 72], 1
	lea	rax, [rsp + 128]
	mov	qword ptr [rsp + 48], rax
	mov	qword ptr [rsp + 56], 1
.Ltmp65:
.Ltmp33:
	.loc	1 62 13
	mov	rdi, r15
	call	r13
.Ltmp66:
.Ltmp34:
	.file	14 "/rustc/a28077b28a02b92985b3a3faecf92813155f1ea1/library/core/src" "cmp.rs"
	.loc	14 1535 5
	inc	rbp
.Ltmp67:
	cmp	rbp, 100
	jne	.LBB6_3
.Ltmp68:
	.loc	14 0 5 is_stmt 0
	movabs	rcx, -6640827866535438581
	.loc	1 64 9 is_stmt 1
	mov	rax, rbx
	imul	rcx
	add	rdx, rbx
	mov	rax, rdx
	shr	rax, 63
	sar	rdx, 6
	add	rdx, rax
.Ltmp69:
	mov	qword ptr [rsp], rdx
.Ltmp70:
	.loc	1 65 9
	lea	rax, [rip + _ZN26direct_tail_call_threading17NUM_OF_ITERATIONS17h8080068b6195069dE]
	mov	qword ptr [rsp + 80], rax
	mov	rax, qword ptr [rip + _ZN4core3fmt3num3imp52_$LT$impl$u20$core..fmt..Display$u20$for$u20$i64$GT$3fmt17hef13e556cddee2ccE@GOTPCREL]
	mov	qword ptr [rsp + 88], rax
	mov	rcx, rsp
	mov	qword ptr [rsp + 96], rcx
	mov	qword ptr [rsp + 104], rax
.Ltmp71:
	mov	qword ptr [rsp + 144], 2
	mov	qword ptr [rsp + 160], 2
	mov	qword ptr [rsp + 176], 0
	mov	qword ptr [rsp + 184], 32
	mov	byte ptr [rsp + 192], 3
	mov	qword ptr [rsp + 200], 2
	mov	qword ptr [rsp + 216], 0
	mov	qword ptr [rsp + 224], 10
	mov	qword ptr [rsp + 232], 1
	mov	qword ptr [rsp + 240], 32
	mov	byte ptr [rsp + 248], 3
.Ltmp72:
	.loc	13 348 9
	lea	rax, [rip + .L__unnamed_3]
.Ltmp73:
	mov	qword ptr [rsp + 32], rax
	mov	qword ptr [rsp + 40], 3
	lea	rax, [rsp + 144]
.Ltmp74:
	mov	qword ptr [rsp + 64], rax
	mov	qword ptr [rsp + 72], 2
	lea	rax, [rsp + 80]
	mov	qword ptr [rsp + 48], rax
	mov	qword ptr [rsp + 56], 2
.Ltmp36:
	lea	rdi, [rsp + 32]
.Ltmp75:
	.loc	1 65 9
	call	qword ptr [rip + _ZN3std2io5stdio6_print17h63a00216c7cec9b0E@GOTPCREL]
.Ltmp76:
.Ltmp37:
	.loc	1 72 1
	mov	rax, qword ptr [rsp + 16]
.Ltmp77:
	.loc	7 240 25
	test	rax, rax
	je	.LBB6_14
.Ltmp78:
	.loc	1 72 1
	mov	rdi, qword ptr [rsp + 8]
.Ltmp79:
	.loc	8 1266 5
	shl	rax, 3
.Ltmp80:
	lea	rsi, [rax + 2*rax]
.Ltmp81:
	.loc	9 117 14
	mov	edx, 8
	call	qword ptr [rip + __rust_dealloc@GOTPCREL]
.Ltmp82:
.LBB6_14:
	.loc	1 72 2 epilogue_begin
	add	rsp, 296
	.cfi_def_cfa_offset 56
	pop	rbx
	.cfi_def_cfa_offset 48
	pop	r12
	.cfi_def_cfa_offset 40
	pop	r13
	.cfi_def_cfa_offset 32
	pop	r14
	.cfi_def_cfa_offset 24
	pop	r15
	.cfi_def_cfa_offset 16
	pop	rbp
	.cfi_def_cfa_offset 8
	ret
.LBB6_18:
	.cfi_def_cfa_offset 352
.Ltmp83:
	.loc	7 189 27
	mov	edi, 8
	mov	esi, 168
	call	qword ptr [rip + _ZN5alloc5alloc18handle_alloc_error17h047bf044e422c00fE@GOTPCREL]
	ud2
.Ltmp84:
.LBB6_16:
.Ltmp38:
	.loc	7 0 27 is_stmt 0
	jmp	.LBB6_17
.LBB6_15:
.Ltmp35:
.LBB6_17:
	mov	rbx, rax
	.loc	1 72 1 is_stmt 1
	mov	rdi, qword ptr [rsp + 8]
	mov	rsi, qword ptr [rsp + 16]
	call	_ZN4core3ptr92drop_in_place$LT$alloc..vec..Vec$LT$mylib..internal_instruction..InternalInstruction$GT$$GT$17ha251e78dfc98a1a4E
	mov	rdi, rbx
	call	_Unwind_Resume@PLT
	ud2
.Ltmp85:
.Lfunc_end6:
	.size	_ZN26direct_tail_call_threading4main17ha128f3e3fb473bd5E, .Lfunc_end6-_ZN26direct_tail_call_threading4main17ha128f3e3fb473bd5E
	.cfi_endproc
	.file	15 "/rustc/a28077b28a02b92985b3a3faecf92813155f1ea1/library/core/src/iter" "range.rs"
	.file	16 "/rustc/a28077b28a02b92985b3a3faecf92813155f1ea1/library/std/src" "macros.rs"
	.section	.gcc_except_table._ZN26direct_tail_call_threading4main17ha128f3e3fb473bd5E,"a",@progbits
	.p2align	2, 0x0
GCC_except_table6:
.Lexception0:
	.byte	255
	.byte	255
	.byte	1
	.uleb128 .Lcst_end0-.Lcst_begin0
.Lcst_begin0:
	.uleb128 .Lfunc_begin6-.Lfunc_begin6
	.uleb128 .Ltmp23-.Lfunc_begin6
	.byte	0
	.byte	0
	.uleb128 .Ltmp23-.Lfunc_begin6
	.uleb128 .Ltmp24-.Ltmp23
	.uleb128 .Ltmp38-.Lfunc_begin6
	.byte	0
	.uleb128 .Ltmp25-.Lfunc_begin6
	.uleb128 .Ltmp34-.Ltmp25
	.uleb128 .Ltmp35-.Lfunc_begin6
	.byte	0
	.uleb128 .Ltmp36-.Lfunc_begin6
	.uleb128 .Ltmp37-.Ltmp36
	.uleb128 .Ltmp38-.Lfunc_begin6
	.byte	0
	.uleb128 .Ltmp37-.Lfunc_begin6
	.uleb128 .Lfunc_end6-.Ltmp37
	.byte	0
	.byte	0
.Lcst_end0:
	.p2align	2, 0x0

	.section	.text.main,"ax",@progbits
	.globl	main
	.p2align	4, 0x90
	.type	main,@function
main:
.Lfunc_begin7:
	.cfi_startproc
	push	rax
	.cfi_def_cfa_offset 16
	mov	rcx, rsi
	mov	rax, qword ptr [rip + __rustc_debug_gdb_scripts_section__@GOTPCREL]
	movzx	eax, byte ptr [rax]
	movsxd	rdx, edi
	lea	rax, [rip + _ZN26direct_tail_call_threading4main17ha128f3e3fb473bd5E]
	mov	qword ptr [rsp], rax
	lea	rsi, [rip + .L__unnamed_1]
	mov	rdi, rsp
	xor	r8d, r8d
	call	qword ptr [rip + _ZN3std2rt19lang_start_internal17h2d6a60ec944b523dE@GOTPCREL]
	pop	rcx
	.cfi_def_cfa_offset 8
	ret
.Lfunc_end7:
	.size	main, .Lfunc_end7-main
	.cfi_endproc

	.type	.L__unnamed_1,@object
	.section	.data.rel.ro..L__unnamed_1,"aw",@progbits
	.p2align	3, 0x0
.L__unnamed_1:
	.quad	_ZN4core3ptr85drop_in_place$LT$std..rt..lang_start$LT$$LP$$RP$$GT$..$u7b$$u7b$closure$u7d$$u7d$$GT$17h77485fe38c654c91E
	.asciz	"\b\000\000\000\000\000\000\000\b\000\000\000\000\000\000"
	.quad	_ZN4core3ops8function6FnOnce40call_once$u7b$$u7b$vtable.shim$u7d$$u7d$17h185b7d5dacd4320cE
	.quad	_ZN3std2rt10lang_start28_$u7b$$u7b$closure$u7d$$u7d$17h67ce7b349027d320E
	.quad	_ZN3std2rt10lang_start28_$u7b$$u7b$closure$u7d$$u7d$17h67ce7b349027d320E
	.size	.L__unnamed_1, 48

	.type	_ZN26direct_tail_call_threading17NUM_OF_ITERATIONS17h8080068b6195069dE,@object
	.section	.rodata._ZN26direct_tail_call_threading17NUM_OF_ITERATIONS17h8080068b6195069dE,"a",@progbits
	.p2align	3, 0x0
_ZN26direct_tail_call_threading17NUM_OF_ITERATIONS17h8080068b6195069dE:
	.asciz	"d\000\000\000\000\000\000"
	.size	_ZN26direct_tail_call_threading17NUM_OF_ITERATIONS17h8080068b6195069dE, 8

	.type	.L__unnamed_4,@object
	.section	.rodata..L__unnamed_4,"a",@progbits
.L__unnamed_4:
	.ascii	"Average of "
	.size	.L__unnamed_4, 11

	.type	.L__unnamed_5,@object
	.section	.rodata..L__unnamed_5,"a",@progbits
.L__unnamed_5:
	.ascii	" results: "
	.size	.L__unnamed_5, 10

	.type	.L__unnamed_6,@object
	.section	.rodata.cst4,"aM",@progbits,4
.L__unnamed_6:
	.ascii	" ns\n"
	.size	.L__unnamed_6, 4

	.type	.L__unnamed_3,@object
	.section	.data.rel.ro..L__unnamed_3,"aw",@progbits
	.p2align	3, 0x0
.L__unnamed_3:
	.quad	.L__unnamed_4
	.asciz	"\013\000\000\000\000\000\000"
	.quad	.L__unnamed_5
	.asciz	"\n\000\000\000\000\000\000"
	.quad	.L__unnamed_6
	.asciz	"\004\000\000\000\000\000\000"
	.size	.L__unnamed_3, 48

	.type	.L__unnamed_7,@object
	.section	.rodata..L__unnamed_7,"a",@progbits
.L__unnamed_7:
	.ascii	"Time elapsed: "
	.size	.L__unnamed_7, 14

	.type	.L__unnamed_2,@object
	.section	.data.rel.ro..L__unnamed_2,"aw",@progbits
	.p2align	3, 0x0
.L__unnamed_2:
	.quad	.L__unnamed_7
	.asciz	"\016\000\000\000\000\000\000"
	.quad	.L__unnamed_6
	.asciz	"\004\000\000\000\000\000\000"
	.size	.L__unnamed_2, 32

	.type	__rustc_debug_gdb_scripts_section__,@object
	.section	.debug_gdb_scripts,"aMS",@progbits,1,unique,1
	.weak	__rustc_debug_gdb_scripts_section__
__rustc_debug_gdb_scripts_section__:
	.asciz	"\001gdb_load_rust_pretty_printers.py"
	.size	__rustc_debug_gdb_scripts_section__, 34

	.section	.data.rel.ro..L__unnamed_1,"aw",@progbits
.Lsec_end0:
	.section	.rodata._ZN26direct_tail_call_threading17NUM_OF_ITERATIONS17h8080068b6195069dE,"a",@progbits
.Lsec_end1:
	.section	.text._ZN3std10sys_common9backtrace28__rust_begin_short_backtrace17h97deda9dd1755145E,"ax",@progbits
.Lsec_end2:
	.section	.text._ZN3std2rt10lang_start17h0e69b04978f06d00E,"ax",@progbits
.Lsec_end3:
	.section	".text._ZN3std2rt10lang_start28_$u7b$$u7b$closure$u7d$$u7d$17h67ce7b349027d320E","ax",@progbits
.Lsec_end4:
	.section	".text._ZN4core3ops8function6FnOnce40call_once$u7b$$u7b$vtable.shim$u7d$$u7d$17h185b7d5dacd4320cE","ax",@progbits
.Lsec_end5:
	.section	".text._ZN4core3ptr85drop_in_place$LT$std..rt..lang_start$LT$$LP$$RP$$GT$..$u7b$$u7b$closure$u7d$$u7d$$GT$17h77485fe38c654c91E","ax",@progbits
.Lsec_end6:
	.section	".text._ZN4core3ptr92drop_in_place$LT$alloc..vec..Vec$LT$mylib..internal_instruction..InternalInstruction$GT$$GT$17ha251e78dfc98a1a4E","ax",@progbits
.Lsec_end7:
	.section	.text._ZN26direct_tail_call_threading4main17ha128f3e3fb473bd5E,"ax",@progbits
.Lsec_end8:
	.section	.data.DW.ref.rust_eh_personality,"aGw",@progbits,DW.ref.rust_eh_personality,comdat
	.p2align	3, 0x0
	.type	DW.ref.rust_eh_personality,@object
	.size	DW.ref.rust_eh_personality, 8
DW.ref.rust_eh_personality:
	.quad	rust_eh_personality
	.ident	"rustc version 1.74.1 (a28077b28 2023-12-04)"
	.section	".note.GNU-stack","",@progbits