	.section	__TEXT,__text,regular,pure_instructions
	.build_version macos, 14, 0
	.file	1 "/Users/kawar/GitHub/rust-instruction-dispatch/C/switch-dispatch" "switch_dispatch.c"
	.file	2 "/Library/Developer/CommandLineTools/SDKs/MacOSX14.sdk/usr/include" "time.h"
	.globl	_main                           ; -- Begin function main
	.p2align	2
_main:                                  ; @main
Lfunc_begin0:
	.loc	1 47 0                          ; switch_dispatch.c:47:0
	.cfi_startproc
; %bb.0:
	stp	x28, x27, [sp, #-96]!           ; 16-byte Folded Spill
	stp	x26, x25, [sp, #16]             ; 16-byte Folded Spill
	stp	x24, x23, [sp, #32]             ; 16-byte Folded Spill
	stp	x22, x21, [sp, #48]             ; 16-byte Folded Spill
	stp	x20, x19, [sp, #64]             ; 16-byte Folded Spill
	stp	x29, x30, [sp, #80]             ; 16-byte Folded Spill
	add	x29, sp, #80
	sub	sp, sp, #1088
	.cfi_def_cfa w29, 16
	.cfi_offset w30, -8
	.cfi_offset w29, -16
	.cfi_offset w19, -24
	.cfi_offset w20, -32
	.cfi_offset w21, -40
	.cfi_offset w22, -48
	.cfi_offset w23, -56
	.cfi_offset w24, -64
	.cfi_offset w25, -72
	.cfi_offset w26, -80
	.cfi_offset w27, -88
	.cfi_offset w28, -96
Lloh0:
	adrp	x8, ___stack_chk_guard@GOTPAGE
Lloh1:
	ldr	x8, [x8, ___stack_chk_guard@GOTPAGEOFF]
Lloh2:
	ldr	x8, [x8]
	stur	x8, [x29, #-88]
	add	x21, sp, #56
Ltmp0:
	.loc	1 61 9 prologue_end             ; switch_dispatch.c:61:9
	add	x0, sp, #56
	mov	w1, #1024                       ; =0x400
	bl	_bzero
Ltmp1:
	;DEBUG_VALUE: i <- 0
	;DEBUG_VALUE: main:average <- 0
	.loc	1 0 9 is_stmt 0                 ; switch_dispatch.c:0:9
	mov	w22, #0                         ; =0x0
	mov	x25, #0                         ; =0x0
Lloh3:
	adrp	x23, l___const.main.program@PAGE
Lloh4:
	add	x23, x23, l___const.main.program@PAGEOFF
	mov	w24, #51712                     ; =0xca00
	movk	w24, #15258, lsl #16
Lloh5:
	adrp	x19, l_.str.1@PAGE
Lloh6:
	add	x19, x19, l_.str.1@PAGEOFF
Lloh7:
	adrp	x26, LJTI0_0@PAGE
Lloh8:
	add	x26, x26, LJTI0_0@PAGEOFF
Lloh9:
	adrp	x20, l_.str@PAGE
Lloh10:
	add	x20, x20, l_.str@PAGEOFF
	b	LBB0_2
Ltmp2:
LBB0_1:                                 ;   in Loop: Header=BB0_2 Depth=1
	;DEBUG_VALUE: main:pc <- $w27
	;DEBUG_VALUE: i <- $w22
	;DEBUG_VALUE: main:average <- $x25
	.loc	1 67 13 is_stmt 1               ; switch_dispatch.c:67:13
	cmp	w22, #10
	csel	x25, xzr, x25, eq
Ltmp3:
	;DEBUG_VALUE: main:average <- $x25
	.loc	1 97 9                          ; switch_dispatch.c:97:9
	add	x1, sp, #24
	mov	w0, #4                          ; =0x4
	bl	_clock_gettime
Ltmp4:
	.loc	1 98 28                         ; switch_dispatch.c:98:28
	ldp	x8, x9, [sp, #24]
	.loc	1 98 46 is_stmt 0               ; switch_dispatch.c:98:46
	ldp	x10, x11, [sp, #40]
	.loc	1 98 35                         ; switch_dispatch.c:98:35
	sub	x8, x8, x10
	.loc	1 98 67                         ; switch_dispatch.c:98:67
	madd	x8, x8, x24, x9
	.loc	1 98 84                         ; switch_dispatch.c:98:84
	sub	x8, x8, x11
	.loc	1 98 17                         ; switch_dispatch.c:98:17
	add	x25, x8, x25
Ltmp5:
	;DEBUG_VALUE: main:average <- $x25
	.loc	1 99 9 is_stmt 1                ; switch_dispatch.c:99:9
	str	x8, [sp]
	mov	x0, x19
	bl	_printf
Ltmp6:
	.loc	1 65 68                         ; switch_dispatch.c:65:68
	add	w22, w22, #1
Ltmp7:
	;DEBUG_VALUE: i <- $w22
	.loc	1 65 5 is_stmt 0                ; switch_dispatch.c:65:5
	cmp	w22, #110
	b.eq	LBB0_12
Ltmp8:
LBB0_2:                                 ; =>This Loop Header: Depth=1
                                        ;     Child Loop BB0_6 Depth 2
	;DEBUG_VALUE: main:average <- $x25
	;DEBUG_VALUE: i <- $w22
	.loc	1 71 9 is_stmt 1                ; switch_dispatch.c:71:9
	add	x1, sp, #40
	mov	w0, #4                          ; =0x4
	bl	_clock_gettime
Ltmp9:
	;DEBUG_VALUE: main:pc <- 0
	.loc	1 0 9 is_stmt 0                 ; switch_dispatch.c:0:9
	mov	w27, #0                         ; =0x0
	b	LBB0_6
Ltmp10:
LBB0_3:                                 ;   in Loop: Header=BB0_6 Depth=2
	;DEBUG_VALUE: main:pc <- $w27
	;DEBUG_VALUE: i <- $w22
	;DEBUG_VALUE: main:average <- $x25
	.loc	1 78 54 is_stmt 1               ; switch_dispatch.c:78:54
	ubfx	w9, w8, #4, #20
Ltmp11:
LBB0_4:                                 ;   in Loop: Header=BB0_6 Depth=2
	;DEBUG_VALUE: main:pc <- $w27
	;DEBUG_VALUE: i <- $w22
	;DEBUG_VALUE: main:average <- $x25
	.loc	1 0 0 is_stmt 0                 ; switch_dispatch.c:0:0
	lsr	x8, x8, #22
	and	x8, x8, #0x3fc
	str	w9, [x21, x8]
Ltmp12:
LBB0_5:                                 ;   in Loop: Header=BB0_6 Depth=2
	;DEBUG_VALUE: main:pc <- $w27
	;DEBUG_VALUE: i <- $w22
	;DEBUG_VALUE: main:average <- $x25
	;DEBUG_VALUE: main:pc <- $w27
	.loc	1 95 16 is_stmt 1               ; switch_dispatch.c:95:16
	add	w27, w27, #1
Ltmp13:
	;DEBUG_VALUE: main:pc <- $w27
	.loc	1 73 9                          ; switch_dispatch.c:73:9
	cmp	w27, #7
	b.hs	LBB0_1
Ltmp14:
LBB0_6:                                 ;   Parent Loop BB0_2 Depth=1
                                        ; =>  This Inner Loop Header: Depth=2
	;DEBUG_VALUE: i <- $w22
	;DEBUG_VALUE: main:average <- $x25
	;DEBUG_VALUE: main:pc <- $w27
	.loc	1 75 21                         ; switch_dispatch.c:75:21
	ldr	w8, [x23, w27, uxtw #2]
	.loc	1 75 13 is_stmt 0               ; switch_dispatch.c:75:13
	and	x9, x8, #0xf
	cmp	w9, #3
	b.hi	LBB0_5
Ltmp15:
; %bb.7:                                ;   in Loop: Header=BB0_6 Depth=2
	;DEBUG_VALUE: main:pc <- $w27
	;DEBUG_VALUE: i <- $w22
	;DEBUG_VALUE: main:average <- $x25
	.loc	1 0 13                          ; switch_dispatch.c:0:13
	adr	x10, LBB0_3
	ldrb	w11, [x26, x9]
	add	x10, x10, x11, lsl #2
	br	x10
Ltmp16:
LBB0_8:                                 ;   in Loop: Header=BB0_6 Depth=2
	;DEBUG_VALUE: main:pc <- $w27
	;DEBUG_VALUE: i <- $w22
	;DEBUG_VALUE: main:average <- $x25
	.loc	1 81 61 is_stmt 1               ; switch_dispatch.c:81:61
	ubfx	x9, x8, #16, #8
	.loc	1 81 54 is_stmt 0               ; switch_dispatch.c:81:54
	ldr	w9, [x21, x9, lsl #2]
	.loc	1 81 98                         ; switch_dispatch.c:81:98
	ubfx	x10, x8, #4, #12
	.loc	1 81 91                         ; switch_dispatch.c:81:91
	ldr	w10, [x21, x10, lsl #2]
	.loc	1 81 89                         ; switch_dispatch.c:81:89
	add	w9, w10, w9
	b	LBB0_4
Ltmp17:
LBB0_9:                                 ;   in Loop: Header=BB0_6 Depth=2
	;DEBUG_VALUE: main:pc <- $w27
	;DEBUG_VALUE: i <- $w22
	;DEBUG_VALUE: main:average <- $x25
	.loc	1 84 28 is_stmt 1               ; switch_dispatch.c:84:28
	ubfx	x9, x8, #24, #8
	.loc	1 84 21 is_stmt 0               ; switch_dispatch.c:84:21
	ldr	w9, [x21, w9, uxtw #2]
	.loc	1 84 66                         ; switch_dispatch.c:84:66
	ubfx	w10, w8, #16, #8
	.loc	1 84 59                         ; switch_dispatch.c:84:59
	ldr	w10, [x21, w10, uxtw #2]
Ltmp18:
	.loc	1 84 21                         ; switch_dispatch.c:84:21
	cmp	w9, w10
	b.eq	LBB0_5
Ltmp19:
; %bb.10:                               ;   in Loop: Header=BB0_6 Depth=2
	;DEBUG_VALUE: main:pc <- $w27
	;DEBUG_VALUE: i <- $w22
	;DEBUG_VALUE: main:average <- $x25
	.loc	1 86 26 is_stmt 1               ; switch_dispatch.c:86:26
	ubfx	w8, w8, #4, #12
	.loc	1 86 55 is_stmt 0               ; switch_dispatch.c:86:55
	sub	w27, w8, #1
Ltmp20:
	;DEBUG_VALUE: main:pc <- $w27
	.loc	1 0 55                          ; switch_dispatch.c:0:55
	b	LBB0_5
Ltmp21:
LBB0_11:                                ;   in Loop: Header=BB0_6 Depth=2
	;DEBUG_VALUE: main:pc <- $w27
	;DEBUG_VALUE: i <- $w22
	;DEBUG_VALUE: main:average <- $x25
	.loc	1 90 39 is_stmt 1               ; switch_dispatch.c:90:39
	ubfx	x8, x8, #24, #8
	.loc	1 90 17 is_stmt 0               ; switch_dispatch.c:90:17
	ldr	w8, [x21, w8, uxtw #2]
	str	x8, [sp]
	mov	x0, x20
	bl	_printf
Ltmp22:
	.loc	1 0 17                          ; switch_dispatch.c:0:17
	b	LBB0_5
Ltmp23:
LBB0_12:
	;DEBUG_VALUE: main:pc <- $w27
	;DEBUG_VALUE: main:average <- $x25
	mov	x8, #55051                      ; =0xd70b
	movk	x8, #28835, lsl #16
	movk	x8, #2621, lsl #32
	movk	x8, #41943, lsl #48
	.loc	1 102 13 is_stmt 1              ; switch_dispatch.c:102:13
	smulh	x8, x25, x8
	add	x8, x8, x25
	asr	x9, x8, #6
	add	x8, x9, x8, lsr #63
Ltmp24:
	;DEBUG_VALUE: main:average <- $x8
	.loc	1 0 13 is_stmt 0                ; switch_dispatch.c:0:13
	mov	w9, #100                        ; =0x64
	.loc	1 103 5 is_stmt 1               ; switch_dispatch.c:103:5
	stp	x9, x8, [sp]
Lloh11:
	adrp	x0, l_.str.2@PAGE
Lloh12:
	add	x0, x0, l_.str.2@PAGEOFF
	bl	_printf
Ltmp25:
	.loc	1 0 5 is_stmt 0                 ; switch_dispatch.c:0:5
	ldur	x8, [x29, #-88]
Lloh13:
	adrp	x9, ___stack_chk_guard@GOTPAGE
Lloh14:
	ldr	x9, [x9, ___stack_chk_guard@GOTPAGEOFF]
Lloh15:
	ldr	x9, [x9]
	cmp	x9, x8
	b.ne	LBB0_14
Ltmp26:
; %bb.13:
	;DEBUG_VALUE: main:pc <- $w27
	.loc	1 104 1 is_stmt 1               ; switch_dispatch.c:104:1
	mov	w0, #0                          ; =0x0
	.loc	1 104 1 epilogue_begin is_stmt 0 ; switch_dispatch.c:104:1
	add	sp, sp, #1088
	ldp	x29, x30, [sp, #80]             ; 16-byte Folded Reload
	ldp	x20, x19, [sp, #64]             ; 16-byte Folded Reload
	ldp	x22, x21, [sp, #48]             ; 16-byte Folded Reload
	ldp	x24, x23, [sp, #32]             ; 16-byte Folded Reload
	ldp	x26, x25, [sp, #16]             ; 16-byte Folded Reload
	ldp	x28, x27, [sp], #96             ; 16-byte Folded Reload
Ltmp27:
	ret
Ltmp28:
LBB0_14:
	;DEBUG_VALUE: main:pc <- $w27
	.loc	1 0 1                           ; switch_dispatch.c:0:1
	bl	___stack_chk_fail
Ltmp29:
	.loh AdrpAdd	Lloh9, Lloh10
	.loh AdrpAdd	Lloh7, Lloh8
	.loh AdrpAdd	Lloh5, Lloh6
	.loh AdrpAdd	Lloh3, Lloh4
	.loh AdrpLdrGotLdr	Lloh0, Lloh1, Lloh2
	.loh AdrpLdrGotLdr	Lloh13, Lloh14, Lloh15
	.loh AdrpAdd	Lloh11, Lloh12
Lfunc_end0:
	.cfi_endproc
	.section	__TEXT,__const
LJTI0_0:
	.byte	(LBB0_3-LBB0_3)>>2
	.byte	(LBB0_8-LBB0_3)>>2
	.byte	(LBB0_9-LBB0_3)>>2
	.byte	(LBB0_11-LBB0_3)>>2
	.file	3 "/Library/Developer/CommandLineTools/SDKs/MacOSX14.sdk/usr/include/arm" "_types.h"
	.file	4 "/Library/Developer/CommandLineTools/SDKs/MacOSX14.sdk/usr/include/sys/_types" "_timespec.h"
	.file	5 "/Library/Developer/CommandLineTools/SDKs/MacOSX14.sdk/usr/include" "stdio.h"
                                        ; -- End function
	.p2align	2, 0x0                          ; @__const.main.program
l___const.main.program:
	.long	0                               ; 0x0
	.long	16777232                        ; 0x1000010
	.long	50331632                        ; 0x2fffff0
	.long	17                              ; 0x11
	.long	131122                          ; 0x20032
	.long	3                               ; 0x3
	.long	4                               ; 0x4

	.section	__TEXT,__cstring,cstring_literals
l_.str:                                 ; @.str
	.asciz	"%d\n"

l_.str.1:                               ; @.str.1
	.asciz	"Time elapsed: %10ld ns\n"

l_.str.2:                               ; @.str.2
	.asciz	"Average of %d results: %10ld ns\n"
