; ModuleID = 'mylib.1e5095158ddfd34c-cgu.0'
source_filename = "mylib.1e5095158ddfd34c-cgu.0"
target datalayout = "e-m:o-i64:64-i128:128-n32:64-S128"
target triple = "arm64-apple-macosx11.0.0"

%"core::fmt::Arguments<'_>" = type { { ptr, i64 }, { ptr, i64 }, { ptr, i64 } }

@alloc_91c7fa63c3cfeaa3c795652d5cf060e4 = private unnamed_addr constant <{ [12 x i8] }> <{ [12 x i8] c"invalid args" }>, align 1
@alloc_560206a49c61adca6f3f0639a12632eb = private unnamed_addr constant <{ ptr, [8 x i8] }> <{ ptr @alloc_91c7fa63c3cfeaa3c795652d5cf060e4, [8 x i8] c"\0C\00\00\00\00\00\00\00" }>, align 8
@alloc_513570631223a12912d85da2bec3b15a = private unnamed_addr constant <{}> zeroinitializer, align 8
@alloc_9ed430b94f4ce1dd83c5bf921baa4d13 = private unnamed_addr constant <{ [75 x i8] }> <{ [75 x i8] c"/rustc/d5c2e9c342b358556da91d61ed4133f6f50fc0c3/library/core/src/fmt/mod.rs" }>, align 1
@alloc_ddf0753c1acd19679fd5dab8ed866cf6 = private unnamed_addr constant <{ ptr, [16 x i8] }> <{ ptr @alloc_9ed430b94f4ce1dd83c5bf921baa4d13, [16 x i8] c"K\00\00\00\00\00\00\005\01\00\00\0D\00\00\00" }>, align 8
@alloc_b1f466ce6672c5ee26dbfcd9befbb6be = private unnamed_addr constant <{ ptr, [16 x i8] }> <{ ptr @alloc_9ed430b94f4ce1dd83c5bf921baa4d13, [16 x i8] c"K\00\00\00\00\00\00\00+\01\00\00\0D\00\00\00" }>, align 8
@alloc_124637d68e2372c2f647d1681247e12a = private unnamed_addr constant <{ [22 x i8] }> <{ [22 x i8] c"Unknown Opcode value: " }>, align 1
@alloc_5535958222240d4ee5fc68b0477de46d = private unnamed_addr constant <{ ptr, [8 x i8] }> <{ ptr @alloc_124637d68e2372c2f647d1681247e12a, [8 x i8] c"\16\00\00\00\00\00\00\00" }>, align 8
@alloc_d6d4d5493cfa6cf205956f7cd45982d7 = private unnamed_addr constant <{ [15 x i8] }> <{ [15 x i8] c"src/bytecode.rs" }>, align 1
@alloc_588515dc92038edf121bb2ab40ea175e = private unnamed_addr constant <{ ptr, [16 x i8] }> <{ ptr @alloc_d6d4d5493cfa6cf205956f7cd45982d7, [16 x i8] c"\0F\00\00\00\00\00\00\00`\00\00\00\12\00\00\00" }>, align 8
@alloc_f1624323c4aee869ef0b9062673bbe21 = private unnamed_addr constant <{ ptr, [16 x i8] }> <{ ptr @alloc_d6d4d5493cfa6cf205956f7cd45982d7, [16 x i8] c"\0F\00\00\00\00\00\00\00$\01\00\00\1A\00\00\00" }>, align 8
@alloc_a24a4e53e3ab230814ae80ae18cdb370 = private unnamed_addr constant <{ ptr, [16 x i8] }> <{ ptr @alloc_d6d4d5493cfa6cf205956f7cd45982d7, [16 x i8] c"\0F\00\00\00\00\00\00\00$\01\00\00\05\00\00\00" }>, align 8
@alloc_538be672e409ce904ce8f2d67d95d753 = private unnamed_addr constant <{ ptr, [16 x i8] }> <{ ptr @alloc_d6d4d5493cfa6cf205956f7cd45982d7, [16 x i8] c"\0F\00\00\00\00\00\00\00'\01\00\00F\00\00\00" }>, align 8
@alloc_2a54be7cf85ad21d635442c7a1c988a2 = private unnamed_addr constant <{ ptr, [16 x i8] }> <{ ptr @alloc_d6d4d5493cfa6cf205956f7cd45982d7, [16 x i8] c"\0F\00\00\00\00\00\00\00'\01\00\00\1A\00\00\00" }>, align 8
@alloc_a45b241ef0cfa46d070c41c80cd6ef85 = private unnamed_addr constant <{ ptr, [16 x i8] }> <{ ptr @alloc_d6d4d5493cfa6cf205956f7cd45982d7, [16 x i8] c"\0F\00\00\00\00\00\00\00'\01\00\00\05\00\00\00" }>, align 8
@alloc_72191bd67762a945a40251dff03ec3ce = private unnamed_addr constant <{ ptr, [16 x i8] }> <{ ptr @alloc_d6d4d5493cfa6cf205956f7cd45982d7, [16 x i8] c"\0F\00\00\00\00\00\00\003\01\00\00\1A\00\00\00" }>, align 8
@alloc_92b22d5184b06337fe44f42ed981fb44 = private unnamed_addr constant <{ ptr, [16 x i8] }> <{ ptr @alloc_d6d4d5493cfa6cf205956f7cd45982d7, [16 x i8] c"\0F\00\00\00\00\00\00\003\01\00\00\05\00\00\00" }>, align 8
@alloc_1e8003cbff7a63e60b81a2588a97b590 = private unnamed_addr constant <{ ptr, [16 x i8] }> <{ ptr @alloc_d6d4d5493cfa6cf205956f7cd45982d7, [16 x i8] c"\0F\00\00\00\00\00\00\00B\01\00\00K\00\00\00" }>, align 8
@alloc_f7a7f3eacd5449934b8b17149e57dd7b = private unnamed_addr constant <{ ptr, [16 x i8] }> <{ ptr @alloc_d6d4d5493cfa6cf205956f7cd45982d7, [16 x i8] c"\0F\00\00\00\00\00\00\00B\01\00\006\00\00\00" }>, align 8
@alloc_514c297d16f2db5a3d46f8b74c0f3a1a = private unnamed_addr constant <{ ptr, [16 x i8] }> <{ ptr @alloc_d6d4d5493cfa6cf205956f7cd45982d7, [16 x i8] c"\0F\00\00\00\00\00\00\00C\01\00\00 \00\00\00" }>, align 8
@alloc_b981bf588841f62f15bd83c44a0d671b = private unnamed_addr constant <{ ptr, [16 x i8] }> <{ ptr @alloc_d6d4d5493cfa6cf205956f7cd45982d7, [16 x i8] c"\0F\00\00\00\00\00\00\00C\01\00\00\0B\00\00\00" }>, align 8
@alloc_d289163dec93a9aeaff921636feb8663 = private unnamed_addr constant <{ ptr, [16 x i8] }> <{ ptr @alloc_d6d4d5493cfa6cf205956f7cd45982d7, [16 x i8] c"\0F\00\00\00\00\00\00\00B\01\00\00\1A\00\00\00" }>, align 8
@alloc_ed55f08297163cb2932f808e92db710e = private unnamed_addr constant <{ ptr, [16 x i8] }> <{ ptr @alloc_d6d4d5493cfa6cf205956f7cd45982d7, [16 x i8] c"\0F\00\00\00\00\00\00\00B\01\00\00\05\00\00\00" }>, align 8
@alloc_a74641d6a90b7a97d176e6646d096ba4 = private unnamed_addr constant <{ ptr, [16 x i8] }> <{ ptr @alloc_d6d4d5493cfa6cf205956f7cd45982d7, [16 x i8] c"\0F\00\00\00\00\00\00\00M\01\00\00\1A\00\00\00" }>, align 8
@alloc_6f44715712d7855a4957dde957b08791 = private unnamed_addr constant <{ ptr, [16 x i8] }> <{ ptr @alloc_d6d4d5493cfa6cf205956f7cd45982d7, [16 x i8] c"\0F\00\00\00\00\00\00\00M\01\00\00\05\00\00\00" }>, align 8
@alloc_fdf4da9f38137e11c6c62475e94a06f8 = private unnamed_addr constant <{ ptr, [16 x i8] }> <{ ptr @alloc_d6d4d5493cfa6cf205956f7cd45982d7, [16 x i8] c"\0F\00\00\00\00\00\00\00[\01\00\00\1D\00\00\00" }>, align 8
@alloc_6f17c875e5ad6a71b60fa027db470b5d = private unnamed_addr constant <{ ptr, [16 x i8] }> <{ ptr @alloc_d6d4d5493cfa6cf205956f7cd45982d7, [16 x i8] c"\0F\00\00\00\00\00\00\00[\01\00\00\08\00\00\00" }>, align 8
@alloc_0fd792398c12b5bd23f4f0301f2d420d = private unnamed_addr constant <{ ptr, [16 x i8] }> <{ ptr @alloc_d6d4d5493cfa6cf205956f7cd45982d7, [16 x i8] c"\0F\00\00\00\00\00\00\00\\\01\00\00!\00\00\00" }>, align 8
@alloc_bbdc8f72886ad6b5a8ce9e7e68ec863e = private unnamed_addr constant <{ ptr, [16 x i8] }> <{ ptr @alloc_d6d4d5493cfa6cf205956f7cd45982d7, [16 x i8] c"\0F\00\00\00\00\00\00\00\\\01\00\00\0C\00\00\00" }>, align 8
@alloc_076fdf523ac8346215d251de86ba334a = private unnamed_addr constant <{ ptr, [16 x i8] }> <{ ptr @alloc_d6d4d5493cfa6cf205956f7cd45982d7, [16 x i8] c"\0F\00\00\00\00\00\00\00^\01\00\00\1E\00\00\00" }>, align 8
@alloc_117dc74ec5994907e75883c741ab11f4 = private unnamed_addr constant <{ ptr, [16 x i8] }> <{ ptr @alloc_d6d4d5493cfa6cf205956f7cd45982d7, [16 x i8] c"\0F\00\00\00\00\00\00\00e\01\00\00\1A\00\00\00" }>, align 8
@alloc_b816a24b18e64fa7b85123b159e4f36a = private unnamed_addr constant <{ ptr, [16 x i8] }> <{ ptr @alloc_d6d4d5493cfa6cf205956f7cd45982d7, [16 x i8] c"\0F\00\00\00\00\00\00\00e\01\00\00\05\00\00\00" }>, align 8
@alloc_49a1e817e911805af64bbc7efb390101 = private unnamed_addr constant <{ [1 x i8] }> <{ [1 x i8] c"\0A" }>, align 1
@alloc_4ed11f17954caf7854f80f02ae34907e = private unnamed_addr constant <{ ptr, [8 x i8], ptr, [8 x i8] }> <{ ptr @alloc_513570631223a12912d85da2bec3b15a, [8 x i8] zeroinitializer, ptr @alloc_49a1e817e911805af64bbc7efb390101, [8 x i8] c"\01\00\00\00\00\00\00\00" }>, align 8
@alloc_aa4123eebe77320fe08193742e71b0ea = private unnamed_addr constant <{ ptr, [16 x i8] }> <{ ptr @alloc_d6d4d5493cfa6cf205956f7cd45982d7, [16 x i8] c"\0F\00\00\00\00\00\00\00l\01\00\00)\00\00\00" }>, align 8
@alloc_11f7f201569e451408903c8973667571 = private unnamed_addr constant <{ ptr, [16 x i8] }> <{ ptr @alloc_d6d4d5493cfa6cf205956f7cd45982d7, [16 x i8] c"\0F\00\00\00\00\00\00\00l\01\00\00\14\00\00\00" }>, align 8
@alloc_72e63da5bc2cf8fb8c2a6cf16dec4d9b = private unnamed_addr constant <{ ptr, [16 x i8] }> <{ ptr @alloc_d6d4d5493cfa6cf205956f7cd45982d7, [16 x i8] c"\0F\00\00\00\00\00\00\00n\01\00\00\1A\00\00\00" }>, align 8
@alloc_cee07ac51dc056338d6b4449235e3bad = private unnamed_addr constant <{ ptr, [16 x i8] }> <{ ptr @alloc_d6d4d5493cfa6cf205956f7cd45982d7, [16 x i8] c"\0F\00\00\00\00\00\00\00n\01\00\00\05\00\00\00" }>, align 8
@alloc_1528b3082d08550f5746c6359de0090e = private unnamed_addr constant <{ [13 x i8] }> <{ [13 x i8] c"LOAD: memory[" }>, align 1
@alloc_428053e6434889c8e3f16313e3d2a9ba = private unnamed_addr constant <{ [4 x i8] }> <{ [4 x i8] c"] = " }>, align 1
@alloc_08277363910ed55a4d1f982b11bc3fab = private unnamed_addr constant <{ ptr, [8 x i8], ptr, [8 x i8], ptr, [8 x i8] }> <{ ptr @alloc_1528b3082d08550f5746c6359de0090e, [8 x i8] c"\0D\00\00\00\00\00\00\00", ptr @alloc_428053e6434889c8e3f16313e3d2a9ba, [8 x i8] c"\04\00\00\00\00\00\00\00", ptr @alloc_49a1e817e911805af64bbc7efb390101, [8 x i8] c"\01\00\00\00\00\00\00\00" }>, align 8
@alloc_55c73f7180bff337b1b4eecacffafcc2 = private unnamed_addr constant <{ [12 x i8] }> <{ [12 x i8] c"ADD: memory[" }>, align 1
@alloc_19182f7716cfa7b356cedb4cbeefa355 = private unnamed_addr constant <{ [11 x i8] }> <{ [11 x i8] c"] = memory[" }>, align 1
@alloc_b7f6d234a01b9951c1058b6787aee5dd = private unnamed_addr constant <{ [11 x i8] }> <{ [11 x i8] c"] + memory[" }>, align 1
@alloc_2367c1aa00ce1fc7a807fbde9bd9192c = private unnamed_addr constant <{ [2 x i8] }> <{ [2 x i8] c"]\0A" }>, align 1
@alloc_08b8b59d4592f5e4cb44d4c269b75b85 = private unnamed_addr constant <{ ptr, [8 x i8], ptr, [8 x i8], ptr, [8 x i8], ptr, [8 x i8] }> <{ ptr @alloc_55c73f7180bff337b1b4eecacffafcc2, [8 x i8] c"\0C\00\00\00\00\00\00\00", ptr @alloc_19182f7716cfa7b356cedb4cbeefa355, [8 x i8] c"\0B\00\00\00\00\00\00\00", ptr @alloc_b7f6d234a01b9951c1058b6787aee5dd, [8 x i8] c"\0B\00\00\00\00\00\00\00", ptr @alloc_2367c1aa00ce1fc7a807fbde9bd9192c, [8 x i8] c"\02\00\00\00\00\00\00\00" }>, align 8
@alloc_af821f617c7ac9cd3983c2a43461e7fb = private unnamed_addr constant <{ [17 x i8] }> <{ [17 x i8] c"JMPNE: if memory[" }>, align 1
@alloc_0ec296139988350060c83fe7a94bf00c = private unnamed_addr constant <{ [12 x i8] }> <{ [12 x i8] c"] != memory[" }>, align 1
@alloc_e6c517e4453ae95685412b6ccf76fcf4 = private unnamed_addr constant <{ [7 x i8] }> <{ [7 x i8] c"] pc = " }>, align 1
@alloc_6c1278270be7c1937f69e7d5ccd82dc1 = private unnamed_addr constant <{ ptr, [8 x i8], ptr, [8 x i8], ptr, [8 x i8], ptr, [8 x i8] }> <{ ptr @alloc_af821f617c7ac9cd3983c2a43461e7fb, [8 x i8] c"\11\00\00\00\00\00\00\00", ptr @alloc_0ec296139988350060c83fe7a94bf00c, [8 x i8] c"\0C\00\00\00\00\00\00\00", ptr @alloc_e6c517e4453ae95685412b6ccf76fcf4, [8 x i8] c"\07\00\00\00\00\00\00\00", ptr @alloc_49a1e817e911805af64bbc7efb390101, [8 x i8] c"\01\00\00\00\00\00\00\00" }>, align 8
@alloc_29350cbfa649254c87bcfd7b9e5a1624 = private unnamed_addr constant <{ [20 x i8] }> <{ [20 x i8] c"PRINT: print memory[" }>, align 1
@alloc_beb631b24497aa79602fe07f865a7d18 = private unnamed_addr constant <{ ptr, [8 x i8], ptr, [8 x i8] }> <{ ptr @alloc_29350cbfa649254c87bcfd7b9e5a1624, [8 x i8] c"\14\00\00\00\00\00\00\00", ptr @alloc_2367c1aa00ce1fc7a807fbde9bd9192c, [8 x i8] c"\02\00\00\00\00\00\00\00" }>, align 8
@alloc_b23ab836b894be968061dd1d4b861ae2 = private unnamed_addr constant <{ [4 x i8] }> <{ [4 x i8] c"RET\0A" }>, align 1
@alloc_1ae31664852bdd543ee7abebae08d5f9 = private unnamed_addr constant <{ ptr, [8 x i8] }> <{ ptr @alloc_b23ab836b894be968061dd1d4b861ae2, [8 x i8] c"\04\00\00\00\00\00\00\00" }>, align 8
@alloc_1300d27cd771a45707c3d648e0c9f0bc = private unnamed_addr constant <{ [4 x i8] }> <{ [4 x i8] c"LOAD" }>, align 1
@alloc_341782a764bce741258269b0ec0d4112 = private unnamed_addr constant <{ [3 x i8] }> <{ [3 x i8] c"ADD" }>, align 1
@alloc_26cea3fd2f0cfa8fed80dedf4bd6982c = private unnamed_addr constant <{ [5 x i8] }> <{ [5 x i8] c"JMPNE" }>, align 1
@alloc_4edb254b3e7fdd3d2045bf39e1ff32e5 = private unnamed_addr constant <{ [5 x i8] }> <{ [5 x i8] c"PRINT" }>, align 1
@alloc_09b811a1da80bf08aea854b228048cc6 = private unnamed_addr constant <{ [3 x i8] }> <{ [3 x i8] c"RET" }>, align 1

; core::fmt::Arguments::new_v1
; Function Attrs: inlinehint uwtable
define internal void @_ZN4core3fmt9Arguments6new_v117hc8ead5d868234d32E(ptr sret(%"core::fmt::Arguments<'_>") %0, ptr align 8 %pieces.0, i64 %pieces.1, ptr align 8 %args.0, i64 %args.1) unnamed_addr #0 {
start:
  %_16 = alloca { ptr, i64 }, align 8
  %_14 = alloca { ptr, i64 }, align 8
  %_12 = alloca %"core::fmt::Arguments<'_>", align 8
  %_3 = alloca i8, align 1
  %_4 = icmp ult i64 %pieces.1, %args.1
  br i1 %_4, label %bb1, label %bb2

bb2:                                              ; preds = %start
  %_9 = add i64 %args.1, 1
  %_7 = icmp ugt i64 %pieces.1, %_9
  %1 = zext i1 %_7 to i8
  store i8 %1, ptr %_3, align 1
  br label %bb3

bb1:                                              ; preds = %start
  store i8 1, ptr %_3, align 1
  br label %bb3

bb3:                                              ; preds = %bb1, %bb2
  %2 = load i8, ptr %_3, align 1, !range !1, !noundef !2
  %3 = trunc i8 %2 to i1
  br i1 %3, label %bb4, label %bb5

bb5:                                              ; preds = %bb3
  store ptr null, ptr %_14, align 8
  %4 = getelementptr inbounds { ptr, i64 }, ptr %0, i32 0, i32 0
  store ptr %pieces.0, ptr %4, align 8
  %5 = getelementptr inbounds { ptr, i64 }, ptr %0, i32 0, i32 1
  store i64 %pieces.1, ptr %5, align 8
  %6 = getelementptr inbounds { ptr, i64 }, ptr %_14, i32 0, i32 0
  %7 = load ptr, ptr %6, align 8, !align !3, !noundef !2
  %8 = getelementptr inbounds { ptr, i64 }, ptr %_14, i32 0, i32 1
  %9 = load i64, ptr %8, align 8
  %10 = getelementptr inbounds %"core::fmt::Arguments<'_>", ptr %0, i32 0, i32 2
  %11 = getelementptr inbounds { ptr, i64 }, ptr %10, i32 0, i32 0
  store ptr %7, ptr %11, align 8
  %12 = getelementptr inbounds { ptr, i64 }, ptr %10, i32 0, i32 1
  store i64 %9, ptr %12, align 8
  %13 = getelementptr inbounds %"core::fmt::Arguments<'_>", ptr %0, i32 0, i32 1
  %14 = getelementptr inbounds { ptr, i64 }, ptr %13, i32 0, i32 0
  store ptr %args.0, ptr %14, align 8
  %15 = getelementptr inbounds { ptr, i64 }, ptr %13, i32 0, i32 1
  store i64 %args.1, ptr %15, align 8
  ret void

bb4:                                              ; preds = %bb3
  store ptr null, ptr %_16, align 8
  %16 = getelementptr inbounds { ptr, i64 }, ptr %_12, i32 0, i32 0
  store ptr @alloc_560206a49c61adca6f3f0639a12632eb, ptr %16, align 8
  %17 = getelementptr inbounds { ptr, i64 }, ptr %_12, i32 0, i32 1
  store i64 1, ptr %17, align 8
  %18 = getelementptr inbounds { ptr, i64 }, ptr %_16, i32 0, i32 0
  %19 = load ptr, ptr %18, align 8, !align !3, !noundef !2
  %20 = getelementptr inbounds { ptr, i64 }, ptr %_16, i32 0, i32 1
  %21 = load i64, ptr %20, align 8
  %22 = getelementptr inbounds %"core::fmt::Arguments<'_>", ptr %_12, i32 0, i32 2
  %23 = getelementptr inbounds { ptr, i64 }, ptr %22, i32 0, i32 0
  store ptr %19, ptr %23, align 8
  %24 = getelementptr inbounds { ptr, i64 }, ptr %22, i32 0, i32 1
  store i64 %21, ptr %24, align 8
  %25 = getelementptr inbounds %"core::fmt::Arguments<'_>", ptr %_12, i32 0, i32 1
  %26 = getelementptr inbounds { ptr, i64 }, ptr %25, i32 0, i32 0
  store ptr @alloc_513570631223a12912d85da2bec3b15a, ptr %26, align 8
  %27 = getelementptr inbounds { ptr, i64 }, ptr %25, i32 0, i32 1
  store i64 0, ptr %27, align 8
; call core::panicking::panic_fmt
  call void @_ZN4core9panicking9panic_fmt17h3bbf9265d206434cE(ptr %_12, ptr align 8 @alloc_ddf0753c1acd19679fd5dab8ed866cf6) #6
  unreachable
}

; core::fmt::Arguments::new_const
; Function Attrs: inlinehint uwtable
define internal void @_ZN4core3fmt9Arguments9new_const17h0448d446c3219d9eE(ptr sret(%"core::fmt::Arguments<'_>") %0, ptr align 8 %pieces.0, i64 %pieces.1) unnamed_addr #0 {
start:
  %_7 = alloca { ptr, i64 }, align 8
  %_5 = alloca %"core::fmt::Arguments<'_>", align 8
  %_2 = icmp ugt i64 %pieces.1, 1
  br i1 %_2, label %bb1, label %bb3

bb3:                                              ; preds = %start
  store ptr null, ptr %_7, align 8
  %1 = getelementptr inbounds { ptr, i64 }, ptr %0, i32 0, i32 0
  store ptr %pieces.0, ptr %1, align 8
  %2 = getelementptr inbounds { ptr, i64 }, ptr %0, i32 0, i32 1
  store i64 %pieces.1, ptr %2, align 8
  %3 = getelementptr inbounds { ptr, i64 }, ptr %_7, i32 0, i32 0
  %4 = load ptr, ptr %3, align 8, !align !3, !noundef !2
  %5 = getelementptr inbounds { ptr, i64 }, ptr %_7, i32 0, i32 1
  %6 = load i64, ptr %5, align 8
  %7 = getelementptr inbounds %"core::fmt::Arguments<'_>", ptr %0, i32 0, i32 2
  %8 = getelementptr inbounds { ptr, i64 }, ptr %7, i32 0, i32 0
  store ptr %4, ptr %8, align 8
  %9 = getelementptr inbounds { ptr, i64 }, ptr %7, i32 0, i32 1
  store i64 %6, ptr %9, align 8
  %10 = getelementptr inbounds %"core::fmt::Arguments<'_>", ptr %0, i32 0, i32 1
  %11 = getelementptr inbounds { ptr, i64 }, ptr %10, i32 0, i32 0
  store ptr @alloc_513570631223a12912d85da2bec3b15a, ptr %11, align 8
  %12 = getelementptr inbounds { ptr, i64 }, ptr %10, i32 0, i32 1
  store i64 0, ptr %12, align 8
  ret void

bb1:                                              ; preds = %start
; call core::fmt::Arguments::new_const
  call void @_ZN4core3fmt9Arguments9new_const17h0448d446c3219d9eE(ptr sret(%"core::fmt::Arguments<'_>") %_5, ptr align 8 @alloc_560206a49c61adca6f3f0639a12632eb, i64 1)
; call core::panicking::panic_fmt
  call void @_ZN4core9panicking9panic_fmt17h3bbf9265d206434cE(ptr %_5, ptr align 8 @alloc_b1f466ce6672c5ee26dbfcd9befbb6be) #6
  unreachable
}

; mylib::bytecode::Opcode::from_u32
; Function Attrs: uwtable
define i8 @_ZN5mylib8bytecode6Opcode8from_u3217h523084e362af097dE(i32 %0) unnamed_addr #1 {
start:
  %1 = alloca { ptr, ptr }, align 8
  %_7 = alloca [1 x { ptr, ptr }], align 8
  %_3 = alloca %"core::fmt::Arguments<'_>", align 8
  %2 = alloca i8, align 1
  %value = alloca i32, align 4
  store i32 %0, ptr %value, align 4
  %3 = load i32, ptr %value, align 4, !noundef !2
  switch i32 %3, label %bb1 [
    i32 0, label %bb2
    i32 1, label %bb3
    i32 2, label %bb4
    i32 3, label %bb5
    i32 4, label %bb6
  ]

bb1:                                              ; preds = %start
  store ptr %value, ptr %1, align 8
  %4 = getelementptr inbounds { ptr, ptr }, ptr %1, i32 0, i32 1
  store ptr @"_ZN4core3fmt3num3imp52_$LT$impl$u20$core..fmt..Display$u20$for$u20$u32$GT$3fmt17h86eb4398173913faE", ptr %4, align 8
  %5 = load ptr, ptr %1, align 8, !nonnull !2, !align !4, !noundef !2
  %6 = getelementptr inbounds { ptr, ptr }, ptr %1, i32 0, i32 1
  %7 = load ptr, ptr %6, align 8, !nonnull !2, !noundef !2
  %8 = insertvalue { ptr, ptr } poison, ptr %5, 0
  %9 = insertvalue { ptr, ptr } %8, ptr %7, 1
  %_8.0 = extractvalue { ptr, ptr } %9, 0
  %_8.1 = extractvalue { ptr, ptr } %9, 1
  %10 = getelementptr inbounds [1 x { ptr, ptr }], ptr %_7, i64 0, i64 0
  %11 = getelementptr inbounds { ptr, ptr }, ptr %10, i32 0, i32 0
  store ptr %_8.0, ptr %11, align 8
  %12 = getelementptr inbounds { ptr, ptr }, ptr %10, i32 0, i32 1
  store ptr %_8.1, ptr %12, align 8
; call core::fmt::Arguments::new_v1
  call void @_ZN4core3fmt9Arguments6new_v117hc8ead5d868234d32E(ptr sret(%"core::fmt::Arguments<'_>") %_3, ptr align 8 @alloc_5535958222240d4ee5fc68b0477de46d, i64 1, ptr align 8 %_7, i64 1)
; call core::panicking::panic_fmt
  call void @_ZN4core9panicking9panic_fmt17h3bbf9265d206434cE(ptr %_3, ptr align 8 @alloc_588515dc92038edf121bb2ab40ea175e) #6
  unreachable

bb2:                                              ; preds = %start
  store i8 0, ptr %2, align 1
  br label %bb9

bb3:                                              ; preds = %start
  store i8 1, ptr %2, align 1
  br label %bb9

bb4:                                              ; preds = %start
  store i8 2, ptr %2, align 1
  br label %bb9

bb5:                                              ; preds = %start
  store i8 3, ptr %2, align 1
  br label %bb9

bb6:                                              ; preds = %start
  store i8 4, ptr %2, align 1
  br label %bb9

bb9:                                              ; preds = %bb6, %bb5, %bb4, %bb3, %bb2
  %13 = load i8, ptr %2, align 1, !range !5, !noundef !2
  ret i8 %13
}

; mylib::bytecode::vm_loop
; Function Attrs: uwtable
define void @_ZN5mylib8bytecode7vm_loop17h1bd61d467948a81dE(ptr align 4 %program.0, i64 %program.1) unnamed_addr #1 {
start:
  %0 = alloca { ptr, ptr }, align 8
  %_145 = alloca i8, align 1
  %_132 = alloca [1 x { ptr, ptr }], align 8
  %_128 = alloca %"core::fmt::Arguments<'_>", align 8
  %_117 = alloca i8, align 1
  %_80 = alloca i8, align 1
  %_42 = alloca i8, align 1
  %_17 = alloca i8, align 1
  %addr4 = alloca i64, align 8
  %addr3 = alloca i64, align 8
  %addr2 = alloca i64, align 8
  %addr1 = alloca i64, align 8
  %addr = alloca i64, align 8
  %jump_table = alloca [5 x i64], align 8
  %pc = alloca i64, align 8
  %memory = alloca [256 x i32], align 4
  %1 = getelementptr inbounds [256 x i32], ptr %memory, i64 0, i64 0
  call void @llvm.memset.p0.i64(ptr align 4 %1, i8 0, i64 1024, i1 false)
  store i64 0, ptr %pc, align 8
  %2 = call i64 asm sideeffect alignstack "adrp   ${0}, _load_@PAGE\0Aadd    ${0}, ${0}, _load_@PAGEOFF", "=&r,~{cc},~{memory}"(), !srcloc !6
  store i64 %2, ptr %addr, align 8
  %_5 = load i64, ptr %addr, align 8, !noundef !2
  %3 = call i64 asm sideeffect alignstack "adrp   ${0}, _add_@PAGE\0Aadd    ${0}, ${0}, _add_@PAGEOFF", "=&r,~{cc},~{memory}"(), !srcloc !6
  store i64 %3, ptr %addr1, align 8
  %_7 = load i64, ptr %addr1, align 8, !noundef !2
  %4 = call i64 asm sideeffect alignstack "adrp   ${0}, _jmpne_@PAGE\0Aadd    ${0}, ${0}, _jmpne_@PAGEOFF", "=&r,~{cc},~{memory}"(), !srcloc !6
  store i64 %4, ptr %addr2, align 8
  %_9 = load i64, ptr %addr2, align 8, !noundef !2
  %5 = call i64 asm sideeffect alignstack "adrp   ${0}, _print_@PAGE\0Aadd    ${0}, ${0}, _print_@PAGEOFF", "=&r,~{cc},~{memory}"(), !srcloc !6
  store i64 %5, ptr %addr3, align 8
  %_11 = load i64, ptr %addr3, align 8, !noundef !2
  %6 = call i64 asm sideeffect alignstack "adrp   ${0}, _ret_@PAGE\0Aadd    ${0}, ${0}, _ret_@PAGEOFF", "=&r,~{cc},~{memory}"(), !srcloc !6
  store i64 %6, ptr %addr4, align 8
  %_13 = load i64, ptr %addr4, align 8, !noundef !2
  %7 = getelementptr inbounds [5 x i64], ptr %jump_table, i64 0, i64 0
  store i64 %_5, ptr %7, align 8
  %8 = getelementptr inbounds [5 x i64], ptr %jump_table, i64 0, i64 1
  store i64 %_7, ptr %8, align 8
  %9 = getelementptr inbounds [5 x i64], ptr %jump_table, i64 0, i64 2
  store i64 %_9, ptr %9, align 8
  %10 = getelementptr inbounds [5 x i64], ptr %jump_table, i64 0, i64 3
  store i64 %_11, ptr %10, align 8
  %11 = getelementptr inbounds [5 x i64], ptr %jump_table, i64 0, i64 4
  store i64 %_13, ptr %11, align 8
  %_19 = load i64, ptr %pc, align 8, !noundef !2
  %_21 = icmp ult i64 %_19, %program.1
  %12 = call i1 @llvm.expect.i1(i1 %_21, i1 true)
  br i1 %12, label %bb6, label %panic

bb6:                                              ; preds = %start
  %13 = getelementptr inbounds [0 x i32], ptr %program.0, i64 0, i64 %_19
  %_18 = load i32, ptr %13, align 4, !noundef !2
  %_2.i38 = and i32 %_18, 15
; call mylib::bytecode::Opcode::from_u32
  %14 = call i8 @_ZN5mylib8bytecode6Opcode8from_u3217h523084e362af097dE(i32 %_2.i38), !range !5
  store i8 %14, ptr %_17, align 1
  %15 = load i8, ptr %_17, align 1, !range !5, !noundef !2
  %_22 = zext i8 %15 to i64
  %_23 = trunc i64 %_22 to i8
  %_24 = icmp ule i8 %_23, 4
  call void @llvm.assume(i1 %_24)
  %_26 = icmp ult i64 %_22, 5
  %16 = call i1 @llvm.expect.i1(i1 %_26, i1 true)
  br i1 %16, label %bb8, label %panic5

panic:                                            ; preds = %start
; call core::panicking::panic_bounds_check
  call void @_ZN4core9panicking18panic_bounds_check17h498693eedff70cb4E(i64 %_19, i64 %program.1, ptr align 8 @alloc_f1624323c4aee869ef0b9062673bbe21) #6
  unreachable

bb8:                                              ; preds = %bb6
  %17 = getelementptr inbounds [5 x i64], ptr %jump_table, i64 0, i64 %_22
  %addr6 = load i64, ptr %17, align 8, !noundef !2
  call void asm sideeffect alignstack "br ${0}", "r,~{cc},~{memory}"(i64 %addr6), !srcloc !7
  call void asm sideeffect alignstack "_load_:", "~{cc},~{memory}"(), !srcloc !8
  %_29 = load i64, ptr %pc, align 8, !noundef !2
  %_31 = icmp ult i64 %_29, %program.1
  %18 = call i1 @llvm.expect.i1(i1 %_31, i1 true)
  br i1 %18, label %bb11, label %panic7

panic5:                                           ; preds = %bb6
; call core::panicking::panic_bounds_check
  call void @_ZN4core9panicking18panic_bounds_check17h498693eedff70cb4E(i64 %_22, i64 5, ptr align 8 @alloc_a24a4e53e3ab230814ae80ae18cdb370) #6
  unreachable

bb11:                                             ; preds = %bb8
  %19 = getelementptr inbounds [0 x i32], ptr %program.0, i64 0, i64 %_29
  %_28 = load i32, ptr %19, align 4, !noundef !2
  %_2.i46 = lshr i32 %_28, 4
  %20 = and i32 %_2.i46, 1048575
  %_35 = load i64, ptr %pc, align 8, !noundef !2
  %_37 = icmp ult i64 %_35, %program.1
  %21 = call i1 @llvm.expect.i1(i1 %_37, i1 true)
  br i1 %21, label %bb13, label %panic8

panic7:                                           ; preds = %bb8
; call core::panicking::panic_bounds_check
  call void @_ZN4core9panicking18panic_bounds_check17h498693eedff70cb4E(i64 %_29, i64 %program.1, ptr align 8 @alloc_538be672e409ce904ce8f2d67d95d753) #6
  unreachable

bb13:                                             ; preds = %bb11
  %22 = getelementptr inbounds [0 x i32], ptr %program.0, i64 0, i64 %_35
  %_34 = load i32, ptr %22, align 4, !noundef !2
  %_2.i42 = lshr i32 %_34, 24
  %_32 = zext i32 %_2.i42 to i64
  %_39 = icmp ult i64 %_32, 256
  %23 = call i1 @llvm.expect.i1(i1 %_39, i1 true)
  br i1 %23, label %bb15, label %panic9

panic8:                                           ; preds = %bb11
; call core::panicking::panic_bounds_check
  call void @_ZN4core9panicking18panic_bounds_check17h498693eedff70cb4E(i64 %_35, i64 %program.1, ptr align 8 @alloc_2a54be7cf85ad21d635442c7a1c988a2) #6
  unreachable

bb15:                                             ; preds = %bb13
  %24 = getelementptr inbounds [256 x i32], ptr %memory, i64 0, i64 %_32
  store i32 %20, ptr %24, align 4
  %25 = load i64, ptr %pc, align 8, !noundef !2
  %26 = add i64 %25, 1
  store i64 %26, ptr %pc, align 8
  %_44 = load i64, ptr %pc, align 8, !noundef !2
  %_46 = icmp ult i64 %_44, %program.1
  %27 = call i1 @llvm.expect.i1(i1 %_46, i1 true)
  br i1 %27, label %bb16, label %panic10

panic9:                                           ; preds = %bb13
; call core::panicking::panic_bounds_check
  call void @_ZN4core9panicking18panic_bounds_check17h498693eedff70cb4E(i64 %_32, i64 256, ptr align 8 @alloc_a45b241ef0cfa46d070c41c80cd6ef85) #6
  unreachable

bb16:                                             ; preds = %bb15
  %28 = getelementptr inbounds [0 x i32], ptr %program.0, i64 0, i64 %_44
  %_43 = load i32, ptr %28, align 4, !noundef !2
  %_2.i37 = and i32 %_43, 15
; call mylib::bytecode::Opcode::from_u32
  %29 = call i8 @_ZN5mylib8bytecode6Opcode8from_u3217h523084e362af097dE(i32 %_2.i37), !range !5
  store i8 %29, ptr %_42, align 1
  %30 = load i8, ptr %_42, align 1, !range !5, !noundef !2
  %_47 = zext i8 %30 to i64
  %_48 = trunc i64 %_47 to i8
  %_49 = icmp ule i8 %_48, 4
  call void @llvm.assume(i1 %_49)
  %_51 = icmp ult i64 %_47, 5
  %31 = call i1 @llvm.expect.i1(i1 %_51, i1 true)
  br i1 %31, label %bb18, label %panic11

panic10:                                          ; preds = %bb15
; call core::panicking::panic_bounds_check
  call void @_ZN4core9panicking18panic_bounds_check17h498693eedff70cb4E(i64 %_44, i64 %program.1, ptr align 8 @alloc_72191bd67762a945a40251dff03ec3ce) #6
  unreachable

bb18:                                             ; preds = %bb16
  %32 = getelementptr inbounds [5 x i64], ptr %jump_table, i64 0, i64 %_47
  %addr12 = load i64, ptr %32, align 8, !noundef !2
  call void asm sideeffect alignstack "br ${0}", "r,~{cc},~{memory}"(i64 %addr12), !srcloc !7
  call void asm sideeffect alignstack "_add_:", "~{cc},~{memory}"(), !srcloc !8
  %_56 = load i64, ptr %pc, align 8, !noundef !2
  %_58 = icmp ult i64 %_56, %program.1
  %33 = call i1 @llvm.expect.i1(i1 %_58, i1 true)
  br i1 %33, label %bb21, label %panic13

panic11:                                          ; preds = %bb16
; call core::panicking::panic_bounds_check
  call void @_ZN4core9panicking18panic_bounds_check17h498693eedff70cb4E(i64 %_47, i64 5, ptr align 8 @alloc_92b22d5184b06337fe44f42ed981fb44) #6
  unreachable

bb21:                                             ; preds = %bb18
  %34 = getelementptr inbounds [0 x i32], ptr %program.0, i64 0, i64 %_56
  %_55 = load i32, ptr %34, align 4, !noundef !2
  %_2.i44 = lshr i32 %_55, 16
  %35 = and i32 %_2.i44, 255
  %_53 = zext i32 %35 to i64
  %_60 = icmp ult i64 %_53, 256
  %36 = call i1 @llvm.expect.i1(i1 %_60, i1 true)
  br i1 %36, label %bb23, label %panic14

panic13:                                          ; preds = %bb18
; call core::panicking::panic_bounds_check
  call void @_ZN4core9panicking18panic_bounds_check17h498693eedff70cb4E(i64 %_56, i64 %program.1, ptr align 8 @alloc_1e8003cbff7a63e60b81a2588a97b590) #6
  unreachable

bb23:                                             ; preds = %bb21
  %37 = getelementptr inbounds [256 x i32], ptr %memory, i64 0, i64 %_53
  %_52 = load i32, ptr %37, align 4, !noundef !2
  %_65 = load i64, ptr %pc, align 8, !noundef !2
  %_67 = icmp ult i64 %_65, %program.1
  %38 = call i1 @llvm.expect.i1(i1 %_67, i1 true)
  br i1 %38, label %bb24, label %panic15

panic14:                                          ; preds = %bb21
; call core::panicking::panic_bounds_check
  call void @_ZN4core9panicking18panic_bounds_check17h498693eedff70cb4E(i64 %_53, i64 256, ptr align 8 @alloc_f7a7f3eacd5449934b8b17149e57dd7b) #6
  unreachable

bb24:                                             ; preds = %bb23
  %39 = getelementptr inbounds [0 x i32], ptr %program.0, i64 0, i64 %_65
  %_64 = load i32, ptr %39, align 4, !noundef !2
  %_2.i45 = lshr i32 %_64, 4
  %40 = and i32 %_2.i45, 4095
  %_62 = zext i32 %40 to i64
  %_69 = icmp ult i64 %_62, 256
  %41 = call i1 @llvm.expect.i1(i1 %_69, i1 true)
  br i1 %41, label %bb26, label %panic16

panic15:                                          ; preds = %bb23
; call core::panicking::panic_bounds_check
  call void @_ZN4core9panicking18panic_bounds_check17h498693eedff70cb4E(i64 %_65, i64 %program.1, ptr align 8 @alloc_514c297d16f2db5a3d46f8b74c0f3a1a) #6
  unreachable

bb26:                                             ; preds = %bb24
  %42 = getelementptr inbounds [256 x i32], ptr %memory, i64 0, i64 %_62
  %_61 = load i32, ptr %42, align 4, !noundef !2
  %_73 = load i64, ptr %pc, align 8, !noundef !2
  %_75 = icmp ult i64 %_73, %program.1
  %43 = call i1 @llvm.expect.i1(i1 %_75, i1 true)
  br i1 %43, label %bb27, label %panic17

panic16:                                          ; preds = %bb24
; call core::panicking::panic_bounds_check
  call void @_ZN4core9panicking18panic_bounds_check17h498693eedff70cb4E(i64 %_62, i64 256, ptr align 8 @alloc_b981bf588841f62f15bd83c44a0d671b) #6
  unreachable

bb27:                                             ; preds = %bb26
  %44 = getelementptr inbounds [0 x i32], ptr %program.0, i64 0, i64 %_73
  %_72 = load i32, ptr %44, align 4, !noundef !2
  %_2.i41 = lshr i32 %_72, 24
  %_70 = zext i32 %_2.i41 to i64
  %_77 = icmp ult i64 %_70, 256
  %45 = call i1 @llvm.expect.i1(i1 %_77, i1 true)
  br i1 %45, label %bb29, label %panic18

panic17:                                          ; preds = %bb26
; call core::panicking::panic_bounds_check
  call void @_ZN4core9panicking18panic_bounds_check17h498693eedff70cb4E(i64 %_73, i64 %program.1, ptr align 8 @alloc_d289163dec93a9aeaff921636feb8663) #6
  unreachable

bb29:                                             ; preds = %bb27
  %46 = getelementptr inbounds [256 x i32], ptr %memory, i64 0, i64 %_70
  %47 = add i32 %_52, %_61
  store i32 %47, ptr %46, align 4
  %48 = load i64, ptr %pc, align 8, !noundef !2
  %49 = add i64 %48, 1
  store i64 %49, ptr %pc, align 8
  %_82 = load i64, ptr %pc, align 8, !noundef !2
  %_84 = icmp ult i64 %_82, %program.1
  %50 = call i1 @llvm.expect.i1(i1 %_84, i1 true)
  br i1 %50, label %bb30, label %panic19

panic18:                                          ; preds = %bb27
; call core::panicking::panic_bounds_check
  call void @_ZN4core9panicking18panic_bounds_check17h498693eedff70cb4E(i64 %_70, i64 256, ptr align 8 @alloc_ed55f08297163cb2932f808e92db710e) #6
  unreachable

bb30:                                             ; preds = %bb29
  %51 = getelementptr inbounds [0 x i32], ptr %program.0, i64 0, i64 %_82
  %_81 = load i32, ptr %51, align 4, !noundef !2
  %_2.i36 = and i32 %_81, 15
; call mylib::bytecode::Opcode::from_u32
  %52 = call i8 @_ZN5mylib8bytecode6Opcode8from_u3217h523084e362af097dE(i32 %_2.i36), !range !5
  store i8 %52, ptr %_80, align 1
  %53 = load i8, ptr %_80, align 1, !range !5, !noundef !2
  %_85 = zext i8 %53 to i64
  %_86 = trunc i64 %_85 to i8
  %_87 = icmp ule i8 %_86, 4
  call void @llvm.assume(i1 %_87)
  %_89 = icmp ult i64 %_85, 5
  %54 = call i1 @llvm.expect.i1(i1 %_89, i1 true)
  br i1 %54, label %bb32, label %panic20

panic19:                                          ; preds = %bb29
; call core::panicking::panic_bounds_check
  call void @_ZN4core9panicking18panic_bounds_check17h498693eedff70cb4E(i64 %_82, i64 %program.1, ptr align 8 @alloc_a74641d6a90b7a97d176e6646d096ba4) #6
  unreachable

bb32:                                             ; preds = %bb30
  %55 = getelementptr inbounds [5 x i64], ptr %jump_table, i64 0, i64 %_85
  %addr21 = load i64, ptr %55, align 8, !noundef !2
  call void asm sideeffect alignstack "br ${0}", "r,~{cc},~{memory}"(i64 %addr21), !srcloc !7
  call void asm sideeffect alignstack "_jmpne_:", "~{cc},~{memory}"(), !srcloc !8
  %_95 = load i64, ptr %pc, align 8, !noundef !2
  %_97 = icmp ult i64 %_95, %program.1
  %56 = call i1 @llvm.expect.i1(i1 %_97, i1 true)
  br i1 %56, label %bb35, label %panic22

panic20:                                          ; preds = %bb30
; call core::panicking::panic_bounds_check
  call void @_ZN4core9panicking18panic_bounds_check17h498693eedff70cb4E(i64 %_85, i64 5, ptr align 8 @alloc_6f44715712d7855a4957dde957b08791) #6
  unreachable

bb35:                                             ; preds = %bb32
  %57 = getelementptr inbounds [0 x i32], ptr %program.0, i64 0, i64 %_95
  %_94 = load i32, ptr %57, align 4, !noundef !2
  %_2.i40 = lshr i32 %_94, 24
  %_92 = zext i32 %_2.i40 to i64
  %_99 = icmp ult i64 %_92, 256
  %58 = call i1 @llvm.expect.i1(i1 %_99, i1 true)
  br i1 %58, label %bb37, label %panic23

panic22:                                          ; preds = %bb32
; call core::panicking::panic_bounds_check
  call void @_ZN4core9panicking18panic_bounds_check17h498693eedff70cb4E(i64 %_95, i64 %program.1, ptr align 8 @alloc_fdf4da9f38137e11c6c62475e94a06f8) #6
  unreachable

bb37:                                             ; preds = %bb35
  %59 = getelementptr inbounds [256 x i32], ptr %memory, i64 0, i64 %_92
  %_91 = load i32, ptr %59, align 4, !noundef !2
  %_104 = load i64, ptr %pc, align 8, !noundef !2
  %_106 = icmp ult i64 %_104, %program.1
  %60 = call i1 @llvm.expect.i1(i1 %_106, i1 true)
  br i1 %60, label %bb38, label %panic24

panic23:                                          ; preds = %bb35
; call core::panicking::panic_bounds_check
  call void @_ZN4core9panicking18panic_bounds_check17h498693eedff70cb4E(i64 %_92, i64 256, ptr align 8 @alloc_6f17c875e5ad6a71b60fa027db470b5d) #6
  unreachable

bb38:                                             ; preds = %bb37
  %61 = getelementptr inbounds [0 x i32], ptr %program.0, i64 0, i64 %_104
  %_103 = load i32, ptr %61, align 4, !noundef !2
  %_2.i43 = lshr i32 %_103, 16
  %62 = and i32 %_2.i43, 255
  %_101 = zext i32 %62 to i64
  %_108 = icmp ult i64 %_101, 256
  %63 = call i1 @llvm.expect.i1(i1 %_108, i1 true)
  br i1 %63, label %bb40, label %panic25

panic24:                                          ; preds = %bb37
; call core::panicking::panic_bounds_check
  call void @_ZN4core9panicking18panic_bounds_check17h498693eedff70cb4E(i64 %_104, i64 %program.1, ptr align 8 @alloc_0fd792398c12b5bd23f4f0301f2d420d) #6
  unreachable

bb40:                                             ; preds = %bb38
  %64 = getelementptr inbounds [256 x i32], ptr %memory, i64 0, i64 %_101
  %_100 = load i32, ptr %64, align 4, !noundef !2
  %_90 = icmp ne i32 %_91, %_100
  br i1 %_90, label %bb41, label %bb44

panic25:                                          ; preds = %bb38
; call core::panicking::panic_bounds_check
  call void @_ZN4core9panicking18panic_bounds_check17h498693eedff70cb4E(i64 %_101, i64 256, ptr align 8 @alloc_bbdc8f72886ad6b5a8ce9e7e68ec863e) #6
  unreachable

bb44:                                             ; preds = %bb42, %bb40
  %65 = load i64, ptr %pc, align 8, !noundef !2
  %66 = add i64 %65, 1
  store i64 %66, ptr %pc, align 8
  %_119 = load i64, ptr %pc, align 8, !noundef !2
  %_121 = icmp ult i64 %_119, %program.1
  %67 = call i1 @llvm.expect.i1(i1 %_121, i1 true)
  br i1 %67, label %bb45, label %panic27

bb41:                                             ; preds = %bb40
  %_112 = load i64, ptr %pc, align 8, !noundef !2
  %_114 = icmp ult i64 %_112, %program.1
  %68 = call i1 @llvm.expect.i1(i1 %_114, i1 true)
  br i1 %68, label %bb42, label %panic26

bb42:                                             ; preds = %bb41
  %69 = getelementptr inbounds [0 x i32], ptr %program.0, i64 0, i64 %_112
  %_111 = load i32, ptr %69, align 4, !noundef !2
  %_2.i47 = lshr i32 %_111, 4
  %70 = and i32 %_2.i47, 4095
  %_109 = zext i32 %70 to i64
  %71 = sub i64 %_109, 1
  store i64 %71, ptr %pc, align 8
  br label %bb44

panic26:                                          ; preds = %bb41
; call core::panicking::panic_bounds_check
  call void @_ZN4core9panicking18panic_bounds_check17h498693eedff70cb4E(i64 %_112, i64 %program.1, ptr align 8 @alloc_076fdf523ac8346215d251de86ba334a) #6
  unreachable

bb45:                                             ; preds = %bb44
  %72 = getelementptr inbounds [0 x i32], ptr %program.0, i64 0, i64 %_119
  %_118 = load i32, ptr %72, align 4, !noundef !2
  %_2.i35 = and i32 %_118, 15
; call mylib::bytecode::Opcode::from_u32
  %73 = call i8 @_ZN5mylib8bytecode6Opcode8from_u3217h523084e362af097dE(i32 %_2.i35), !range !5
  store i8 %73, ptr %_117, align 1
  %74 = load i8, ptr %_117, align 1, !range !5, !noundef !2
  %_122 = zext i8 %74 to i64
  %_123 = trunc i64 %_122 to i8
  %_124 = icmp ule i8 %_123, 4
  call void @llvm.assume(i1 %_124)
  %_126 = icmp ult i64 %_122, 5
  %75 = call i1 @llvm.expect.i1(i1 %_126, i1 true)
  br i1 %75, label %bb47, label %panic28

panic27:                                          ; preds = %bb44
; call core::panicking::panic_bounds_check
  call void @_ZN4core9panicking18panic_bounds_check17h498693eedff70cb4E(i64 %_119, i64 %program.1, ptr align 8 @alloc_117dc74ec5994907e75883c741ab11f4) #6
  unreachable

bb47:                                             ; preds = %bb45
  %76 = getelementptr inbounds [5 x i64], ptr %jump_table, i64 0, i64 %_122
  %addr29 = load i64, ptr %76, align 8, !noundef !2
  call void asm sideeffect alignstack "br ${0}", "r,~{cc},~{memory}"(i64 %addr29), !srcloc !7
  call void asm sideeffect alignstack "_print_:", "~{cc},~{memory}"(), !srcloc !8
  %_138 = load i64, ptr %pc, align 8, !noundef !2
  %_140 = icmp ult i64 %_138, %program.1
  %77 = call i1 @llvm.expect.i1(i1 %_140, i1 true)
  br i1 %77, label %bb50, label %panic30

panic28:                                          ; preds = %bb45
; call core::panicking::panic_bounds_check
  call void @_ZN4core9panicking18panic_bounds_check17h498693eedff70cb4E(i64 %_122, i64 5, ptr align 8 @alloc_b816a24b18e64fa7b85123b159e4f36a) #6
  unreachable

bb50:                                             ; preds = %bb47
  %78 = getelementptr inbounds [0 x i32], ptr %program.0, i64 0, i64 %_138
  %_137 = load i32, ptr %78, align 4, !noundef !2
  %_2.i39 = lshr i32 %_137, 24
  %_135 = zext i32 %_2.i39 to i64
  %_142 = icmp ult i64 %_135, 256
  %79 = call i1 @llvm.expect.i1(i1 %_142, i1 true)
  br i1 %79, label %bb52, label %panic31

panic30:                                          ; preds = %bb47
; call core::panicking::panic_bounds_check
  call void @_ZN4core9panicking18panic_bounds_check17h498693eedff70cb4E(i64 %_138, i64 %program.1, ptr align 8 @alloc_aa4123eebe77320fe08193742e71b0ea) #6
  unreachable

bb52:                                             ; preds = %bb50
  %_134 = getelementptr inbounds [256 x i32], ptr %memory, i64 0, i64 %_135
  store ptr %_134, ptr %0, align 8
  %80 = getelementptr inbounds { ptr, ptr }, ptr %0, i32 0, i32 1
  store ptr @"_ZN4core3fmt3num3imp52_$LT$impl$u20$core..fmt..Display$u20$for$u20$u32$GT$3fmt17h86eb4398173913faE", ptr %80, align 8
  %81 = load ptr, ptr %0, align 8, !nonnull !2, !align !4, !noundef !2
  %82 = getelementptr inbounds { ptr, ptr }, ptr %0, i32 0, i32 1
  %83 = load ptr, ptr %82, align 8, !nonnull !2, !noundef !2
  %84 = insertvalue { ptr, ptr } poison, ptr %81, 0
  %85 = insertvalue { ptr, ptr } %84, ptr %83, 1
  %_133.0 = extractvalue { ptr, ptr } %85, 0
  %_133.1 = extractvalue { ptr, ptr } %85, 1
  %86 = getelementptr inbounds [1 x { ptr, ptr }], ptr %_132, i64 0, i64 0
  %87 = getelementptr inbounds { ptr, ptr }, ptr %86, i32 0, i32 0
  store ptr %_133.0, ptr %87, align 8
  %88 = getelementptr inbounds { ptr, ptr }, ptr %86, i32 0, i32 1
  store ptr %_133.1, ptr %88, align 8
; call core::fmt::Arguments::new_v1
  call void @_ZN4core3fmt9Arguments6new_v117hc8ead5d868234d32E(ptr sret(%"core::fmt::Arguments<'_>") %_128, ptr align 8 @alloc_4ed11f17954caf7854f80f02ae34907e, i64 2, ptr align 8 %_132, i64 1)
; call std::io::stdio::_print
  call void @_ZN3std2io5stdio6_print17hb79efcbb9b8c1566E(ptr %_128)
  %89 = load i64, ptr %pc, align 8, !noundef !2
  %90 = add i64 %89, 1
  store i64 %90, ptr %pc, align 8
  %_147 = load i64, ptr %pc, align 8, !noundef !2
  %_149 = icmp ult i64 %_147, %program.1
  %91 = call i1 @llvm.expect.i1(i1 %_149, i1 true)
  br i1 %91, label %bb56, label %panic32

panic31:                                          ; preds = %bb50
; call core::panicking::panic_bounds_check
  call void @_ZN4core9panicking18panic_bounds_check17h498693eedff70cb4E(i64 %_135, i64 256, ptr align 8 @alloc_11f7f201569e451408903c8973667571) #6
  unreachable

bb56:                                             ; preds = %bb52
  %92 = getelementptr inbounds [0 x i32], ptr %program.0, i64 0, i64 %_147
  %_146 = load i32, ptr %92, align 4, !noundef !2
  %_2.i = and i32 %_146, 15
; call mylib::bytecode::Opcode::from_u32
  %93 = call i8 @_ZN5mylib8bytecode6Opcode8from_u3217h523084e362af097dE(i32 %_2.i), !range !5
  store i8 %93, ptr %_145, align 1
  %94 = load i8, ptr %_145, align 1, !range !5, !noundef !2
  %_150 = zext i8 %94 to i64
  %_151 = trunc i64 %_150 to i8
  %_152 = icmp ule i8 %_151, 4
  call void @llvm.assume(i1 %_152)
  %_154 = icmp ult i64 %_150, 5
  %95 = call i1 @llvm.expect.i1(i1 %_154, i1 true)
  br i1 %95, label %bb58, label %panic33

panic32:                                          ; preds = %bb52
; call core::panicking::panic_bounds_check
  call void @_ZN4core9panicking18panic_bounds_check17h498693eedff70cb4E(i64 %_147, i64 %program.1, ptr align 8 @alloc_72e63da5bc2cf8fb8c2a6cf16dec4d9b) #6
  unreachable

bb58:                                             ; preds = %bb56
  %96 = getelementptr inbounds [5 x i64], ptr %jump_table, i64 0, i64 %_150
  %addr34 = load i64, ptr %96, align 8, !noundef !2
  call void asm sideeffect alignstack "br ${0}", "r,~{cc},~{memory}"(i64 %addr34), !srcloc !7
  call void asm sideeffect alignstack "_ret_:", "~{cc},~{memory}"(), !srcloc !8
  ret void

panic33:                                          ; preds = %bb56
; call core::panicking::panic_bounds_check
  call void @_ZN4core9panicking18panic_bounds_check17h498693eedff70cb4E(i64 %_150, i64 5, ptr align 8 @alloc_cee07ac51dc056338d6b4449235e3bad) #6
  unreachable
}

; mylib::bytecode::print_bytecode
; Function Attrs: uwtable
define void @_ZN5mylib8bytecode14print_bytecode17h77d03d6fb1c494a2E(i32 %bytecode) unnamed_addr #1 {
start:
  %0 = alloca { ptr, ptr }, align 8
  %1 = alloca { ptr, ptr }, align 8
  %2 = alloca { ptr, ptr }, align 8
  %3 = alloca { ptr, ptr }, align 8
  %4 = alloca { ptr, ptr }, align 8
  %5 = alloca { ptr, ptr }, align 8
  %6 = alloca { ptr, ptr }, align 8
  %7 = alloca { ptr, ptr }, align 8
  %8 = alloca { ptr, ptr }, align 8
  %_56 = alloca %"core::fmt::Arguments<'_>", align 8
  %_54 = alloca i32, align 4
  %_51 = alloca [1 x { ptr, ptr }], align 8
  %_47 = alloca %"core::fmt::Arguments<'_>", align 8
  %_45 = alloca i32, align 4
  %_42 = alloca i32, align 4
  %_39 = alloca i32, align 4
  %_36 = alloca [3 x { ptr, ptr }], align 8
  %_32 = alloca %"core::fmt::Arguments<'_>", align 8
  %_30 = alloca i32, align 4
  %_27 = alloca i32, align 4
  %_24 = alloca i32, align 4
  %_21 = alloca [3 x { ptr, ptr }], align 8
  %_17 = alloca %"core::fmt::Arguments<'_>", align 8
  %_15 = alloca i32, align 4
  %_12 = alloca i32, align 4
  %_9 = alloca [2 x { ptr, ptr }], align 8
  %_5 = alloca %"core::fmt::Arguments<'_>", align 8
  %_2 = alloca i8, align 1
  %_2.i = and i32 %bytecode, 15
; call mylib::bytecode::Opcode::from_u32
  %9 = call i8 @_ZN5mylib8bytecode6Opcode8from_u3217h523084e362af097dE(i32 %_2.i), !range !5
  store i8 %9, ptr %_2, align 1
  %10 = load i8, ptr %_2, align 1, !range !5, !noundef !2
  %_3 = zext i8 %10 to i64
  switch i64 %_3, label %bb3 [
    i64 0, label %bb4
    i64 1, label %bb10
    i64 2, label %bb18
    i64 3, label %bb26
    i64 4, label %bb2
  ]

bb3:                                              ; preds = %start
  unreachable

bb4:                                              ; preds = %start
  %_2.i4 = lshr i32 %bytecode, 24
  store i32 %_2.i4, ptr %_12, align 4
  store ptr %_12, ptr %0, align 8
  %11 = getelementptr inbounds { ptr, ptr }, ptr %0, i32 0, i32 1
  store ptr @"_ZN4core3fmt3num3imp52_$LT$impl$u20$core..fmt..Display$u20$for$u20$u32$GT$3fmt17h86eb4398173913faE", ptr %11, align 8
  %12 = load ptr, ptr %0, align 8, !nonnull !2, !align !4, !noundef !2
  %13 = getelementptr inbounds { ptr, ptr }, ptr %0, i32 0, i32 1
  %14 = load ptr, ptr %13, align 8, !nonnull !2, !noundef !2
  %15 = insertvalue { ptr, ptr } poison, ptr %12, 0
  %16 = insertvalue { ptr, ptr } %15, ptr %14, 1
  %_10.0 = extractvalue { ptr, ptr } %16, 0
  %_10.1 = extractvalue { ptr, ptr } %16, 1
  %_2.i8 = lshr i32 %bytecode, 4
  %17 = and i32 %_2.i8, 1048575
  store i32 %17, ptr %_15, align 4
  store ptr %_15, ptr %1, align 8
  %18 = getelementptr inbounds { ptr, ptr }, ptr %1, i32 0, i32 1
  store ptr @"_ZN4core3fmt3num3imp52_$LT$impl$u20$core..fmt..Display$u20$for$u20$u32$GT$3fmt17h86eb4398173913faE", ptr %18, align 8
  %19 = load ptr, ptr %1, align 8, !nonnull !2, !align !4, !noundef !2
  %20 = getelementptr inbounds { ptr, ptr }, ptr %1, i32 0, i32 1
  %21 = load ptr, ptr %20, align 8, !nonnull !2, !noundef !2
  %22 = insertvalue { ptr, ptr } poison, ptr %19, 0
  %23 = insertvalue { ptr, ptr } %22, ptr %21, 1
  %_13.0 = extractvalue { ptr, ptr } %23, 0
  %_13.1 = extractvalue { ptr, ptr } %23, 1
  %24 = getelementptr inbounds [2 x { ptr, ptr }], ptr %_9, i64 0, i64 0
  %25 = getelementptr inbounds { ptr, ptr }, ptr %24, i32 0, i32 0
  store ptr %_10.0, ptr %25, align 8
  %26 = getelementptr inbounds { ptr, ptr }, ptr %24, i32 0, i32 1
  store ptr %_10.1, ptr %26, align 8
  %27 = getelementptr inbounds [2 x { ptr, ptr }], ptr %_9, i64 0, i64 1
  %28 = getelementptr inbounds { ptr, ptr }, ptr %27, i32 0, i32 0
  store ptr %_13.0, ptr %28, align 8
  %29 = getelementptr inbounds { ptr, ptr }, ptr %27, i32 0, i32 1
  store ptr %_13.1, ptr %29, align 8
; call core::fmt::Arguments::new_v1
  call void @_ZN4core3fmt9Arguments6new_v117hc8ead5d868234d32E(ptr sret(%"core::fmt::Arguments<'_>") %_5, ptr align 8 @alloc_08277363910ed55a4d1f982b11bc3fab, i64 3, ptr align 8 %_9, i64 2)
; call std::io::stdio::_print
  call void @_ZN3std2io5stdio6_print17hb79efcbb9b8c1566E(ptr %_5)
  br label %bb31

bb10:                                             ; preds = %start
  %_2.i3 = lshr i32 %bytecode, 24
  store i32 %_2.i3, ptr %_24, align 4
  store ptr %_24, ptr %2, align 8
  %30 = getelementptr inbounds { ptr, ptr }, ptr %2, i32 0, i32 1
  store ptr @"_ZN4core3fmt3num3imp52_$LT$impl$u20$core..fmt..Display$u20$for$u20$u32$GT$3fmt17h86eb4398173913faE", ptr %30, align 8
  %31 = load ptr, ptr %2, align 8, !nonnull !2, !align !4, !noundef !2
  %32 = getelementptr inbounds { ptr, ptr }, ptr %2, i32 0, i32 1
  %33 = load ptr, ptr %32, align 8, !nonnull !2, !noundef !2
  %34 = insertvalue { ptr, ptr } poison, ptr %31, 0
  %35 = insertvalue { ptr, ptr } %34, ptr %33, 1
  %_22.0 = extractvalue { ptr, ptr } %35, 0
  %_22.1 = extractvalue { ptr, ptr } %35, 1
  %_2.i6 = lshr i32 %bytecode, 16
  %36 = and i32 %_2.i6, 255
  store i32 %36, ptr %_27, align 4
  store ptr %_27, ptr %3, align 8
  %37 = getelementptr inbounds { ptr, ptr }, ptr %3, i32 0, i32 1
  store ptr @"_ZN4core3fmt3num3imp52_$LT$impl$u20$core..fmt..Display$u20$for$u20$u32$GT$3fmt17h86eb4398173913faE", ptr %37, align 8
  %38 = load ptr, ptr %3, align 8, !nonnull !2, !align !4, !noundef !2
  %39 = getelementptr inbounds { ptr, ptr }, ptr %3, i32 0, i32 1
  %40 = load ptr, ptr %39, align 8, !nonnull !2, !noundef !2
  %41 = insertvalue { ptr, ptr } poison, ptr %38, 0
  %42 = insertvalue { ptr, ptr } %41, ptr %40, 1
  %_25.0 = extractvalue { ptr, ptr } %42, 0
  %_25.1 = extractvalue { ptr, ptr } %42, 1
  %_2.i7 = lshr i32 %bytecode, 4
  %43 = and i32 %_2.i7, 4095
  store i32 %43, ptr %_30, align 4
  store ptr %_30, ptr %4, align 8
  %44 = getelementptr inbounds { ptr, ptr }, ptr %4, i32 0, i32 1
  store ptr @"_ZN4core3fmt3num3imp52_$LT$impl$u20$core..fmt..Display$u20$for$u20$u32$GT$3fmt17h86eb4398173913faE", ptr %44, align 8
  %45 = load ptr, ptr %4, align 8, !nonnull !2, !align !4, !noundef !2
  %46 = getelementptr inbounds { ptr, ptr }, ptr %4, i32 0, i32 1
  %47 = load ptr, ptr %46, align 8, !nonnull !2, !noundef !2
  %48 = insertvalue { ptr, ptr } poison, ptr %45, 0
  %49 = insertvalue { ptr, ptr } %48, ptr %47, 1
  %_28.0 = extractvalue { ptr, ptr } %49, 0
  %_28.1 = extractvalue { ptr, ptr } %49, 1
  %50 = getelementptr inbounds [3 x { ptr, ptr }], ptr %_21, i64 0, i64 0
  %51 = getelementptr inbounds { ptr, ptr }, ptr %50, i32 0, i32 0
  store ptr %_22.0, ptr %51, align 8
  %52 = getelementptr inbounds { ptr, ptr }, ptr %50, i32 0, i32 1
  store ptr %_22.1, ptr %52, align 8
  %53 = getelementptr inbounds [3 x { ptr, ptr }], ptr %_21, i64 0, i64 1
  %54 = getelementptr inbounds { ptr, ptr }, ptr %53, i32 0, i32 0
  store ptr %_25.0, ptr %54, align 8
  %55 = getelementptr inbounds { ptr, ptr }, ptr %53, i32 0, i32 1
  store ptr %_25.1, ptr %55, align 8
  %56 = getelementptr inbounds [3 x { ptr, ptr }], ptr %_21, i64 0, i64 2
  %57 = getelementptr inbounds { ptr, ptr }, ptr %56, i32 0, i32 0
  store ptr %_28.0, ptr %57, align 8
  %58 = getelementptr inbounds { ptr, ptr }, ptr %56, i32 0, i32 1
  store ptr %_28.1, ptr %58, align 8
; call core::fmt::Arguments::new_v1
  call void @_ZN4core3fmt9Arguments6new_v117hc8ead5d868234d32E(ptr sret(%"core::fmt::Arguments<'_>") %_17, ptr align 8 @alloc_08b8b59d4592f5e4cb44d4c269b75b85, i64 4, ptr align 8 %_21, i64 3)
; call std::io::stdio::_print
  call void @_ZN3std2io5stdio6_print17hb79efcbb9b8c1566E(ptr %_17)
  br label %bb31

bb18:                                             ; preds = %start
  %_2.i2 = lshr i32 %bytecode, 24
  store i32 %_2.i2, ptr %_39, align 4
  store ptr %_39, ptr %5, align 8
  %59 = getelementptr inbounds { ptr, ptr }, ptr %5, i32 0, i32 1
  store ptr @"_ZN4core3fmt3num3imp52_$LT$impl$u20$core..fmt..Display$u20$for$u20$u32$GT$3fmt17h86eb4398173913faE", ptr %59, align 8
  %60 = load ptr, ptr %5, align 8, !nonnull !2, !align !4, !noundef !2
  %61 = getelementptr inbounds { ptr, ptr }, ptr %5, i32 0, i32 1
  %62 = load ptr, ptr %61, align 8, !nonnull !2, !noundef !2
  %63 = insertvalue { ptr, ptr } poison, ptr %60, 0
  %64 = insertvalue { ptr, ptr } %63, ptr %62, 1
  %_37.0 = extractvalue { ptr, ptr } %64, 0
  %_37.1 = extractvalue { ptr, ptr } %64, 1
  %_2.i5 = lshr i32 %bytecode, 16
  %65 = and i32 %_2.i5, 255
  store i32 %65, ptr %_42, align 4
  store ptr %_42, ptr %6, align 8
  %66 = getelementptr inbounds { ptr, ptr }, ptr %6, i32 0, i32 1
  store ptr @"_ZN4core3fmt3num3imp52_$LT$impl$u20$core..fmt..Display$u20$for$u20$u32$GT$3fmt17h86eb4398173913faE", ptr %66, align 8
  %67 = load ptr, ptr %6, align 8, !nonnull !2, !align !4, !noundef !2
  %68 = getelementptr inbounds { ptr, ptr }, ptr %6, i32 0, i32 1
  %69 = load ptr, ptr %68, align 8, !nonnull !2, !noundef !2
  %70 = insertvalue { ptr, ptr } poison, ptr %67, 0
  %71 = insertvalue { ptr, ptr } %70, ptr %69, 1
  %_40.0 = extractvalue { ptr, ptr } %71, 0
  %_40.1 = extractvalue { ptr, ptr } %71, 1
  %_2.i9 = lshr i32 %bytecode, 4
  %72 = and i32 %_2.i9, 4095
  store i32 %72, ptr %_45, align 4
  store ptr %_45, ptr %7, align 8
  %73 = getelementptr inbounds { ptr, ptr }, ptr %7, i32 0, i32 1
  store ptr @"_ZN4core3fmt3num3imp52_$LT$impl$u20$core..fmt..Display$u20$for$u20$u32$GT$3fmt17h86eb4398173913faE", ptr %73, align 8
  %74 = load ptr, ptr %7, align 8, !nonnull !2, !align !4, !noundef !2
  %75 = getelementptr inbounds { ptr, ptr }, ptr %7, i32 0, i32 1
  %76 = load ptr, ptr %75, align 8, !nonnull !2, !noundef !2
  %77 = insertvalue { ptr, ptr } poison, ptr %74, 0
  %78 = insertvalue { ptr, ptr } %77, ptr %76, 1
  %_43.0 = extractvalue { ptr, ptr } %78, 0
  %_43.1 = extractvalue { ptr, ptr } %78, 1
  %79 = getelementptr inbounds [3 x { ptr, ptr }], ptr %_36, i64 0, i64 0
  %80 = getelementptr inbounds { ptr, ptr }, ptr %79, i32 0, i32 0
  store ptr %_37.0, ptr %80, align 8
  %81 = getelementptr inbounds { ptr, ptr }, ptr %79, i32 0, i32 1
  store ptr %_37.1, ptr %81, align 8
  %82 = getelementptr inbounds [3 x { ptr, ptr }], ptr %_36, i64 0, i64 1
  %83 = getelementptr inbounds { ptr, ptr }, ptr %82, i32 0, i32 0
  store ptr %_40.0, ptr %83, align 8
  %84 = getelementptr inbounds { ptr, ptr }, ptr %82, i32 0, i32 1
  store ptr %_40.1, ptr %84, align 8
  %85 = getelementptr inbounds [3 x { ptr, ptr }], ptr %_36, i64 0, i64 2
  %86 = getelementptr inbounds { ptr, ptr }, ptr %85, i32 0, i32 0
  store ptr %_43.0, ptr %86, align 8
  %87 = getelementptr inbounds { ptr, ptr }, ptr %85, i32 0, i32 1
  store ptr %_43.1, ptr %87, align 8
; call core::fmt::Arguments::new_v1
  call void @_ZN4core3fmt9Arguments6new_v117hc8ead5d868234d32E(ptr sret(%"core::fmt::Arguments<'_>") %_32, ptr align 8 @alloc_6c1278270be7c1937f69e7d5ccd82dc1, i64 4, ptr align 8 %_36, i64 3)
; call std::io::stdio::_print
  call void @_ZN3std2io5stdio6_print17hb79efcbb9b8c1566E(ptr %_32)
  br label %bb31

bb26:                                             ; preds = %start
  %_2.i1 = lshr i32 %bytecode, 24
  store i32 %_2.i1, ptr %_54, align 4
  store ptr %_54, ptr %8, align 8
  %88 = getelementptr inbounds { ptr, ptr }, ptr %8, i32 0, i32 1
  store ptr @"_ZN4core3fmt3num3imp52_$LT$impl$u20$core..fmt..Display$u20$for$u20$u32$GT$3fmt17h86eb4398173913faE", ptr %88, align 8
  %89 = load ptr, ptr %8, align 8, !nonnull !2, !align !4, !noundef !2
  %90 = getelementptr inbounds { ptr, ptr }, ptr %8, i32 0, i32 1
  %91 = load ptr, ptr %90, align 8, !nonnull !2, !noundef !2
  %92 = insertvalue { ptr, ptr } poison, ptr %89, 0
  %93 = insertvalue { ptr, ptr } %92, ptr %91, 1
  %_52.0 = extractvalue { ptr, ptr } %93, 0
  %_52.1 = extractvalue { ptr, ptr } %93, 1
  %94 = getelementptr inbounds [1 x { ptr, ptr }], ptr %_51, i64 0, i64 0
  %95 = getelementptr inbounds { ptr, ptr }, ptr %94, i32 0, i32 0
  store ptr %_52.0, ptr %95, align 8
  %96 = getelementptr inbounds { ptr, ptr }, ptr %94, i32 0, i32 1
  store ptr %_52.1, ptr %96, align 8
; call core::fmt::Arguments::new_v1
  call void @_ZN4core3fmt9Arguments6new_v117hc8ead5d868234d32E(ptr sret(%"core::fmt::Arguments<'_>") %_47, ptr align 8 @alloc_beb631b24497aa79602fe07f865a7d18, i64 2, ptr align 8 %_51, i64 1)
; call std::io::stdio::_print
  call void @_ZN3std2io5stdio6_print17hb79efcbb9b8c1566E(ptr %_47)
  br label %bb31

bb2:                                              ; preds = %start
; call core::fmt::Arguments::new_const
  call void @_ZN4core3fmt9Arguments9new_const17h0448d446c3219d9eE(ptr sret(%"core::fmt::Arguments<'_>") %_56, ptr align 8 @alloc_1ae31664852bdd543ee7abebae08d5f9, i64 1)
; call std::io::stdio::_print
  call void @_ZN3std2io5stdio6_print17hb79efcbb9b8c1566E(ptr %_56)
  br label %bb31

bb31:                                             ; preds = %bb2, %bb26, %bb18, %bb10, %bb4
  ret void
}

; <mylib::bytecode::Opcode as core::fmt::Debug>::fmt
; Function Attrs: uwtable
define zeroext i1 @"_ZN60_$LT$mylib..bytecode..Opcode$u20$as$u20$core..fmt..Debug$GT$3fmt17hc8af1c07b4bd20abE"(ptr align 1 %self, ptr align 8 %f) unnamed_addr #1 {
start:
  %_3 = alloca { ptr, i64 }, align 8
  %0 = load i8, ptr %self, align 1, !range !5, !noundef !2
  %_4 = zext i8 %0 to i64
  switch i64 %_4, label %bb2 [
    i64 0, label %bb3
    i64 1, label %bb4
    i64 2, label %bb5
    i64 3, label %bb6
    i64 4, label %bb1
  ]

bb2:                                              ; preds = %start
  unreachable

bb3:                                              ; preds = %start
  %1 = getelementptr inbounds { ptr, i64 }, ptr %_3, i32 0, i32 0
  store ptr @alloc_1300d27cd771a45707c3d648e0c9f0bc, ptr %1, align 8
  %2 = getelementptr inbounds { ptr, i64 }, ptr %_3, i32 0, i32 1
  store i64 4, ptr %2, align 8
  br label %bb7

bb4:                                              ; preds = %start
  %3 = getelementptr inbounds { ptr, i64 }, ptr %_3, i32 0, i32 0
  store ptr @alloc_341782a764bce741258269b0ec0d4112, ptr %3, align 8
  %4 = getelementptr inbounds { ptr, i64 }, ptr %_3, i32 0, i32 1
  store i64 3, ptr %4, align 8
  br label %bb7

bb5:                                              ; preds = %start
  %5 = getelementptr inbounds { ptr, i64 }, ptr %_3, i32 0, i32 0
  store ptr @alloc_26cea3fd2f0cfa8fed80dedf4bd6982c, ptr %5, align 8
  %6 = getelementptr inbounds { ptr, i64 }, ptr %_3, i32 0, i32 1
  store i64 5, ptr %6, align 8
  br label %bb7

bb6:                                              ; preds = %start
  %7 = getelementptr inbounds { ptr, i64 }, ptr %_3, i32 0, i32 0
  store ptr @alloc_4edb254b3e7fdd3d2045bf39e1ff32e5, ptr %7, align 8
  %8 = getelementptr inbounds { ptr, i64 }, ptr %_3, i32 0, i32 1
  store i64 5, ptr %8, align 8
  br label %bb7

bb1:                                              ; preds = %start
  %9 = getelementptr inbounds { ptr, i64 }, ptr %_3, i32 0, i32 0
  store ptr @alloc_09b811a1da80bf08aea854b228048cc6, ptr %9, align 8
  %10 = getelementptr inbounds { ptr, i64 }, ptr %_3, i32 0, i32 1
  store i64 3, ptr %10, align 8
  br label %bb7

bb7:                                              ; preds = %bb1, %bb6, %bb5, %bb4, %bb3
  %11 = getelementptr inbounds { ptr, i64 }, ptr %_3, i32 0, i32 0
  %12 = load ptr, ptr %11, align 8, !nonnull !2, !align !4, !noundef !2
  %13 = getelementptr inbounds { ptr, i64 }, ptr %_3, i32 0, i32 1
  %14 = load i64, ptr %13, align 8, !noundef !2
; call core::fmt::Formatter::write_str
  %15 = call zeroext i1 @_ZN4core3fmt9Formatter9write_str17hf28662d815207628E(ptr align 8 %f, ptr align 1 %12, i64 %14)
  ret i1 %15
}

; core::fmt::num::imp::<impl core::fmt::Display for u32>::fmt
; Function Attrs: uwtable
declare zeroext i1 @"_ZN4core3fmt3num3imp52_$LT$impl$u20$core..fmt..Display$u20$for$u20$u32$GT$3fmt17h86eb4398173913faE"(ptr align 4, ptr align 8) unnamed_addr #1

; core::panicking::panic_fmt
; Function Attrs: cold noinline noreturn uwtable
declare void @_ZN4core9panicking9panic_fmt17h3bbf9265d206434cE(ptr, ptr align 8) unnamed_addr #2

; Function Attrs: nocallback nofree nounwind willreturn memory(argmem: write)
declare void @llvm.memset.p0.i64(ptr nocapture writeonly, i8, i64, i1 immarg) #3

; Function Attrs: nocallback nofree nosync nounwind willreturn memory(none)
declare i1 @llvm.expect.i1(i1, i1) #4

; core::panicking::panic_bounds_check
; Function Attrs: cold noinline noreturn uwtable
declare void @_ZN4core9panicking18panic_bounds_check17h498693eedff70cb4E(i64, i64, ptr align 8) unnamed_addr #2

; Function Attrs: nocallback nofree nosync nounwind willreturn memory(inaccessiblemem: readwrite)
declare void @llvm.assume(i1 noundef) #5

; std::io::stdio::_print
; Function Attrs: uwtable
declare void @_ZN3std2io5stdio6_print17hb79efcbb9b8c1566E(ptr) unnamed_addr #1

; core::fmt::Formatter::write_str
; Function Attrs: uwtable
declare zeroext i1 @_ZN4core3fmt9Formatter9write_str17hf28662d815207628E(ptr align 8, ptr align 1, i64) unnamed_addr #1

attributes #0 = { inlinehint uwtable "frame-pointer"="non-leaf" "target-cpu"="apple-m1" }
attributes #1 = { uwtable "frame-pointer"="non-leaf" "target-cpu"="apple-m1" }
attributes #2 = { cold noinline noreturn uwtable "frame-pointer"="non-leaf" "target-cpu"="apple-m1" }
attributes #3 = { nocallback nofree nounwind willreturn memory(argmem: write) }
attributes #4 = { nocallback nofree nosync nounwind willreturn memory(none) }
attributes #5 = { nocallback nofree nosync nounwind willreturn memory(inaccessiblemem: readwrite) }
attributes #6 = { noreturn }

!llvm.module.flags = !{!0}

!0 = !{i32 8, !"PIC Level", i32 2}
!1 = !{i8 0, i8 2}
!2 = !{}
!3 = !{i64 8}
!4 = !{i64 1}
!5 = !{i8 0, i8 5}
!6 = !{i32 397, i32 461}
!7 = !{i32 860}
!8 = !{i32 159}
