	.text
	.file	"bytecode.c"
	.file	0 "/mnt/c/Users/kawar/Documents/GitHub/rust-instruction-dispatch/C/direct-threading" "bytecode.c" md5 0x47d8168430e131eeef41d65004b895ff source "#include <stdio.h>\n\n#include \"bytecode.h\"\n\n#define DISPATCH() goto *dispatch_table[GET_OPCODE(*(++programPointer))]\n\nvoid vm_loop(bytecode_t *program)\n{\n    void *dispatch_table[] = {&&do_load, &&do_add, &&do_jmpne, &&do_print,\n                              &&do_ret};\n    int memory[256] = {0};\n    bytecode_t *programPointer = program;\n\n    goto *dispatch_table[GET_OPCODE(*programPointer)];\ndo_load:\n#ifdef DEBUG\n    printf(\"%ld: load memory[%d] = %d\\n\", programPointer - &program[0], GET_OPERAND_A(*programPointer), GET_OPERAND_IMM(*programPointer));\n#endif\n    memory[GET_OPERAND_A(*programPointer)] = GET_OPERAND_IMM(*programPointer);\n    DISPATCH();\ndo_add:\n#ifdef DEBUG\n    printf(\"%ld: add memory[%d](%d) = memory[%d] + memory[%d]\\n\", programPointer - &program[0], GET_OPERAND_A(*programPointer),\n           memory[GET_OPERAND_A(*programPointer)], GET_OPERAND_B(*programPointer), GET_OPERAND_C(*programPointer));\n#endif\n    memory[GET_OPERAND_A(*programPointer)] = memory[GET_OPERAND_B(*programPointer)] + memory[GET_OPERAND_C(*programPointer)];\n    DISPATCH();\ndo_jmpne:\n#ifdef DEBUG\n    printf(\"%ld: jmpne if memory[%d](%d) != memory[%d](%d) then programPointer = %d\\n\", programPointer - &program[0], GET_OPERAND_A(*programPointer),\n           memory[GET_OPERAND_A(*programPointer)], GET_OPERAND_B(*programPointer), memory[GET_OPERAND_B(*programPointer)], GET_OPERAND_JMP(*programPointer));\n#endif\n    if (memory[GET_OPERAND_A(*programPointer)] != memory[GET_OPERAND_B(*programPointer)])\n    {\n        programPointer = &program[GET_OPERAND_JMP(*programPointer) - 1];\n    }\n    DISPATCH();\ndo_print:\n#ifdef DEBUG\n    printf(\"%ld: print memory[%d](%d)\\n\", programPointer - &program[0], GET_OPERAND_A(*programPointer), memory[GET_OPERAND_A(*programPointer)]);\n#endif\n    printf(\"%d\\n\", memory[GET_OPERAND_A(*programPointer)]);\n    DISPATCH();\ndo_ret:\n#ifdef DEBUG\n    printf(\"%ld: ret\\n\", programPointer - &program[0]);\n#endif\n    ;\n}\n"
	.globl	vm_loop                         # -- Begin function vm_loop
	.p2align	4, 0x90
	.type	vm_loop,@function
vm_loop:                                # @vm_loop
.Lfunc_begin0:
	.loc	0 8 0                           # bytecode.c:8:0
	.cfi_startproc
# %bb.0:
	#DEBUG_VALUE: vm_loop:program <- $rdi
	pushq	%r14
	.cfi_def_cfa_offset 16
	pushq	%rbx
	.cfi_def_cfa_offset 24
	subq	$1096, %rsp                     # imm = 0x448
	.cfi_def_cfa_offset 1120
	.cfi_offset %rbx, -24
	.cfi_offset %r14, -16
	movq	%rdi, %r14
	leaq	.Ltmp0(%rip), %rax
.Ltmp1:
	.loc	0 9 11 prologue_end             # bytecode.c:9:11
	movq	%rax, %xmm0
	leaq	.Ltmp2(%rip), %rax
	movq	%rax, %xmm1
	punpcklqdq	%xmm0, %xmm1            # xmm1 = xmm1[0],xmm0[0]
	movdqa	%xmm1, 16(%rsp)
	leaq	.Ltmp3(%rip), %rax
	movq	%rax, %xmm0
	leaq	.Ltmp4(%rip), %rax
	movq	%rax, %xmm1
	punpcklqdq	%xmm0, %xmm1            # xmm1 = xmm1[0],xmm0[0]
	movdqa	%xmm1, 32(%rsp)
	leaq	.Ltmp5(%rip), %rax
	movq	%rax, 48(%rsp)
	leaq	64(%rsp), %rdi
.Ltmp6:
	#DEBUG_VALUE: vm_loop:program <- $r14
	.loc	0 11 9                          # bytecode.c:11:9
	movl	$1024, %edx                     # imm = 0x400
	xorl	%esi, %esi
	callq	memset@PLT
.Ltmp7:
	#DEBUG_VALUE: vm_loop:programPointer <- undef
	.loc	0 0 0 is_stmt 0                 # bytecode.c:0:0
	movl	(%r14), %eax
	movl	%eax, %ecx
	andl	$15, %ecx
	#DEBUG_VALUE: vm_loop:programPointer <- undef
	movq	%r14, %rbx
	jmpq	*16(%rsp,%rcx,8)
.Ltmp8:
	.p2align	4, 0x90
.Ltmp2:                                 # Block address taken
.LBB0_1:                                # =>This Inner Loop Header: Depth=1
	#DEBUG_VALUE: vm_loop:program <- $r14
	#DEBUG_LABEL: vm_loop:do_load
	.loc	0 17 58 is_stmt 1               # bytecode.c:17:58
	movq	%rbx, %rsi
	subq	%r14, %rsi
	sarq	$2, %rsi
	.loc	0 17 73 is_stmt 0               # bytecode.c:17:73
	movl	%eax, %edx
	shrl	$24, %edx
	.loc	0 17 105                        # bytecode.c:17:105
	shrl	$4, %eax
	andl	$1048575, %eax                  # imm = 0xFFFFF
	.loc	0 17 5                          # bytecode.c:17:5
	leaq	.L.str(%rip), %rdi
	movl	%eax, %ecx
	xorl	%eax, %eax
	callq	printf@PLT
.Ltmp9:
	.loc	0 19 5 is_stmt 1                # bytecode.c:19:5
	movl	(%rbx), %eax
	.loc	0 19 46 is_stmt 0               # bytecode.c:19:46
	movl	%eax, %ecx
	shrl	$4, %ecx
	andl	$1048575, %ecx                  # imm = 0xFFFFF
	.loc	0 19 5                          # bytecode.c:19:5
	shrq	$22, %rax
	andl	$1020, %eax                     # imm = 0x3FC
	.loc	0 19 44                         # bytecode.c:19:44
	movl	%ecx, 64(%rsp,%rax)
.Ltmp10:
	#DEBUG_VALUE: vm_loop:programPointer <- [DW_OP_plus_uconst 4, DW_OP_stack_value] undef
	.loc	0 0 0                           # bytecode.c:0:0
	addq	$4, %rbx
	movl	(%rbx), %eax
	movl	%eax, %ecx
	andl	$15, %ecx
.Ltmp11:
	#DEBUG_VALUE: vm_loop:programPointer <- undef
	jmpq	*16(%rsp,%rcx,8)
.Ltmp12:
.Ltmp0:                                 # Block address taken
.LBB0_2:                                # =>This Inner Loop Header: Depth=1
	#DEBUG_VALUE: vm_loop:program <- $r14
	#DEBUG_LABEL: vm_loop:do_add
	.loc	0 23 82 is_stmt 1               # bytecode.c:23:82
	movq	%rbx, %rsi
	subq	%r14, %rsi
	sarq	$2, %rsi
	.loc	0 23 97 is_stmt 0               # bytecode.c:23:97
	movq	%rax, %rdx
	shrq	$24, %rdx
	.loc	0 24 12 is_stmt 1               # bytecode.c:24:12
	movl	64(%rsp,%rdx,4), %ecx
	.loc	0 24 52 is_stmt 0               # bytecode.c:24:52
	movl	%eax, %edi
	shrl	$16, %edi
	movzbl	%dil, %r8d
	.loc	0 24 84                         # bytecode.c:24:84
	shrl	$4, %eax
	andl	$4095, %eax                     # imm = 0xFFF
	.loc	0 23 5 is_stmt 1                # bytecode.c:23:5
	leaq	.L.str.1(%rip), %rdi
                                        # kill: def $edx killed $edx killed $rdx
	movl	%eax, %r9d
	xorl	%eax, %eax
	callq	printf@PLT
.Ltmp13:
	.loc	0 26 53                         # bytecode.c:26:53
	movl	(%rbx), %eax
	.loc	0 26 46 is_stmt 0               # bytecode.c:26:46
	movq	%rax, %rcx
	shrq	$14, %rcx
	andl	$1020, %ecx                     # imm = 0x3FC
	.loc	0 26 87                         # bytecode.c:26:87
	movq	%rax, %rdx
	shrq	$2, %rdx
	andl	$16380, %edx                    # imm = 0x3FFC
	movl	64(%rsp,%rdx), %edx
	.loc	0 26 85                         # bytecode.c:26:85
	addl	64(%rsp,%rcx), %edx
	.loc	0 26 5                          # bytecode.c:26:5
	shrq	$24, %rax
	.loc	0 26 44                         # bytecode.c:26:44
	movl	%edx, 64(%rsp,%rax,4)
.Ltmp14:
	#DEBUG_VALUE: vm_loop:programPointer <- [DW_OP_plus_uconst 4, DW_OP_stack_value] undef
	.loc	0 0 0                           # bytecode.c:0:0
	addq	$4, %rbx
	movl	(%rbx), %eax
	movl	%eax, %ecx
	andl	$15, %ecx
.Ltmp15:
	#DEBUG_VALUE: vm_loop:programPointer <- undef
	jmpq	*16(%rsp,%rcx,8)
.Ltmp16:
.Ltmp4:                                 # Block address taken
.LBB0_3:                                # =>This Inner Loop Header: Depth=1
	#DEBUG_VALUE: vm_loop:program <- $r14
	#DEBUG_LABEL: vm_loop:do_jmpne
	.loc	0 30 104 is_stmt 1              # bytecode.c:30:104
	movq	%rbx, %rsi
	subq	%r14, %rsi
	sarq	$2, %rsi
	.loc	0 30 119 is_stmt 0              # bytecode.c:30:119
	movq	%rax, %rdx
	shrq	$24, %rdx
	.loc	0 31 12 is_stmt 1               # bytecode.c:31:12
	movl	64(%rsp,%rdx,4), %ecx
	.loc	0 31 52 is_stmt 0               # bytecode.c:31:52
	movl	%eax, %edi
	shrl	$16, %edi
	movzbl	%dil, %r8d
	.loc	0 31 84                         # bytecode.c:31:84
	movl	64(%rsp,%r8,4), %r9d
	.loc	0 31 124                        # bytecode.c:31:124
	shrl	$4, %eax
	andl	$4095, %eax                     # imm = 0xFFF
	.loc	0 30 5 is_stmt 1                # bytecode.c:30:5
	movl	%eax, (%rsp)
	leaq	.L.str.2(%rip), %rdi
                                        # kill: def $edx killed $edx killed $rdx
                                        # kill: def $r8d killed $r8d killed $r8
	xorl	%eax, %eax
	callq	printf@PLT
.Ltmp17:
	.loc	0 33 16                         # bytecode.c:33:16
	movl	(%rbx), %eax
	.loc	0 33 9 is_stmt 0                # bytecode.c:33:9
	movq	%rax, %rcx
	shrq	$24, %rcx
	movl	64(%rsp,%rcx,4), %ecx
	.loc	0 33 51                         # bytecode.c:33:51
	movq	%rax, %rdx
	shrq	$14, %rdx
	andl	$1020, %edx                     # imm = 0x3FC
.Ltmp18:
	.loc	0 33 9                          # bytecode.c:33:9
	shrl	$4, %eax
	andl	$4095, %eax                     # imm = 0xFFF
	decl	%eax
.Ltmp19:
	.loc	0 33 48                         # bytecode.c:33:48
	cmpl	64(%rsp,%rdx), %ecx
.Ltmp20:
	.loc	0 33 9                          # bytecode.c:33:9
	leaq	(%r14,%rax,4), %rcx
	cmoveq	%rbx, %rcx
.Ltmp21:
	#DEBUG_VALUE: vm_loop:programPointer <- $rcx
	#DEBUG_VALUE: vm_loop:programPointer <- [DW_OP_plus_uconst 4, DW_OP_stack_value] $rcx
	.loc	0 0 0                           # bytecode.c:0:0
	addq	$4, %rcx
.Ltmp22:
	movl	(%rcx), %eax
	movl	%eax, %edx
	andl	$15, %edx
.Ltmp23:
	#DEBUG_VALUE: vm_loop:programPointer <- undef
	movq	%rcx, %rbx
	jmpq	*16(%rsp,%rdx,8)
.Ltmp24:
.Ltmp3:                                 # Block address taken
.LBB0_4:                                # =>This Inner Loop Header: Depth=1
	#DEBUG_VALUE: vm_loop:program <- $r14
	#DEBUG_LABEL: vm_loop:do_print
	.loc	0 40 58 is_stmt 1               # bytecode.c:40:58
	movq	%rbx, %rsi
	subq	%r14, %rsi
	sarq	$2, %rsi
	.loc	0 40 73 is_stmt 0               # bytecode.c:40:73
	shrq	$24, %rax
	.loc	0 40 105                        # bytecode.c:40:105
	movl	64(%rsp,%rax,4), %ecx
	.loc	0 40 5                          # bytecode.c:40:5
	leaq	.L.str.3(%rip), %rdi
	movl	%eax, %edx
	xorl	%eax, %eax
	callq	printf@PLT
.Ltmp25:
	.loc	0 42 20 is_stmt 1               # bytecode.c:42:20
	movl	(%rbx), %eax
	shrq	$22, %rax
	andl	$1020, %eax                     # imm = 0x3FC
	movl	64(%rsp,%rax), %esi
	.loc	0 42 5 is_stmt 0                # bytecode.c:42:5
	leaq	.L.str.4(%rip), %rdi
	xorl	%eax, %eax
	callq	printf@PLT
.Ltmp26:
	#DEBUG_VALUE: vm_loop:programPointer <- [DW_OP_plus_uconst 4, DW_OP_stack_value] undef
	.loc	0 0 0                           # bytecode.c:0:0
	addq	$4, %rbx
	movl	(%rbx), %eax
	movl	%eax, %ecx
	andl	$15, %ecx
.Ltmp27:
	#DEBUG_VALUE: vm_loop:programPointer <- undef
	jmpq	*16(%rsp,%rcx,8)
.Ltmp28:
.Ltmp5:                                 # Block address taken
.LBB0_5:
	#DEBUG_VALUE: vm_loop:program <- $r14
	#DEBUG_LABEL: vm_loop:do_ret
	.loc	0 46 41 is_stmt 1               # bytecode.c:46:41
	subq	%r14, %rbx
	sarq	$2, %rbx
	.loc	0 46 5 is_stmt 0                # bytecode.c:46:5
	leaq	.L.str.5(%rip), %rdi
	movq	%rbx, %rsi
	xorl	%eax, %eax
	addq	$1096, %rsp                     # imm = 0x448
	.cfi_def_cfa_offset 24
	popq	%rbx
	.cfi_def_cfa_offset 16
	popq	%r14
.Ltmp29:
	#DEBUG_VALUE: vm_loop:program <- [DW_OP_LLVM_entry_value 1] $rdi
	.cfi_def_cfa_offset 8
	jmp	printf@PLT                      # TAILCALL
.Ltmp30:
.Lfunc_end0:
	.size	vm_loop, .Lfunc_end0-vm_loop
	.cfi_endproc
                                        # -- End function
	.type	.L.str,@object                  # @.str
	.section	.rodata.str1.1,"aMS",@progbits,1
.L.str:
	.asciz	"%ld: load memory[%d] = %d\n"
	.size	.L.str, 27

	.type	.L.str.1,@object                # @.str.1
.L.str.1:
	.asciz	"%ld: add memory[%d](%d) = memory[%d] + memory[%d]\n"
	.size	.L.str.1, 51

	.type	.L.str.2,@object                # @.str.2
.L.str.2:
	.asciz	"%ld: jmpne if memory[%d](%d) != memory[%d](%d) then programPointer = %d\n"
	.size	.L.str.2, 73

	.type	.L.str.3,@object                # @.str.3
.L.str.3:
	.asciz	"%ld: print memory[%d](%d)\n"
	.size	.L.str.3, 27

	.type	.L.str.4,@object                # @.str.4
.L.str.4:
	.asciz	"%d\n"
	.size	.L.str.4, 4

	.type	.L.str.5,@object                # @.str.5
.L.str.5:
	.asciz	"%ld: ret\n"
	.size	.L.str.5, 10

	.file	1 "." "bytecode.h" md5 0xc8e1e974e2eb424d295059f7e81af4ac source "#pragma once\n\ntypedef enum\n{\n    OP_LOAD,\n    OP_ADD,\n    OP_JMPNE,\n    OP_PRINT,\n    OP_RET\n} opcode_t;\n\ntypedef unsigned int bytecode_t;\n\n// Bytecde: packed 32 bit\n// --------------------------\n//    A:B:C:OP = 8: 8:12: 4\n//    A:Imm:OP =    8:20: 4\n//  A:B:Jmp:OP = 8: 8:12: 4\n\n#define MAKE_OPCODE(op) ((op) & 0xf)\n\n#define MAKE_OPCODE_A_B_C(op, a, b, c) (((op) & 0xf) + (((a) & 0xff) << 24) + (((b) & 0xff) << 16) + (((c) & 0xfff) << 4))\n\n#define MAKE_OPCODE_IMM(op, a, imm) (((op) & 0xf) + (((a) & 0xff) << 24) + (((imm & 0xfffff) << 4)))\n\n#define MAKE_OPCODE_A_B_JMP(op, a, b, jmp) (((op) & 0xf) + (((a) & 0xff) << 24) + (((b) & 0xff) << 16) + (((jmp) & 0xfff) << 4))\n\n#define GET_OPCODE(instruction) ((instruction) & 0xf)\n\n#define GET_OPERAND_A(instruction) (((instruction) >> 24) & 0xff)\n\n#define GET_OPERAND_B(instruction) (((instruction) >> 16) & 0xff)\n\n#define GET_OPERAND_C(instruction) (((instruction) >> 4) & 0xfff)\n\n#define GET_OPERAND_IMM(instruction) (((instruction) >> 4) & 0xfffff)\n\n#define GET_OPERAND_JMP(instruction) (((instruction) >> 4) & 0xfff)\n\nextern void vm_loop(bytecode_t *pp);"
	.section	".note.GNU-stack","",@progbits
	.addrsig
	.addrsig_sym vm_loop