	.section	__TEXT,__text,regular,pure_instructions
	.build_version macos, 14, 0
	.file	1 "/Users/kawar/GitHub/rust-instruction-dispatch/C/direct-threading" "direct_threading.c"
	.file	2 "/Library/Developer/CommandLineTools/SDKs/MacOSX14.sdk/usr/include" "time.h"
	.section	__DATA,__const
	.p2align	3, 0x0                          ; -- Begin function main
lCPI0_0:
	.quad	Ltmp0
lCPI0_1:
	.quad	Ltmp1
lCPI0_2:
	.quad	Ltmp2
lCPI0_3:
	.quad	Ltmp3
lCPI0_4:
	.quad	Ltmp4
	.section	__TEXT,__text,regular,pure_instructions
	.globl	_main
	.p2align	2
_main:                                  ; @main
Lfunc_begin0:
	.loc	1 52 0                          ; direct_threading.c:52:0
	.cfi_startproc
; %bb.0:
	stp	x28, x27, [sp, #-96]!           ; 16-byte Folded Spill
	stp	x26, x25, [sp, #16]             ; 16-byte Folded Spill
	stp	x24, x23, [sp, #32]             ; 16-byte Folded Spill
	stp	x22, x21, [sp, #48]             ; 16-byte Folded Spill
	stp	x20, x19, [sp, #64]             ; 16-byte Folded Spill
	stp	x29, x30, [sp, #80]             ; 16-byte Folded Spill
	add	x29, sp, #80
	sub	sp, sp, #1120
	.cfi_def_cfa w29, 16
	.cfi_offset w30, -8
	.cfi_offset w29, -16
	.cfi_offset w19, -24
	.cfi_offset w20, -32
	.cfi_offset w21, -40
	.cfi_offset w22, -48
	.cfi_offset w23, -56
	.cfi_offset w24, -64
	.cfi_offset w25, -72
	.cfi_offset w26, -80
	.cfi_offset w27, -88
	.cfi_offset w28, -96
Lloh0:
	adrp	x8, lCPI0_0@PAGE
Lloh1:
	ldr	x8, [x8, lCPI0_0@PAGEOFF]
Ltmp5:
	.loc	1 69 11 prologue_end            ; direct_threading.c:69:11
	fmov	d0, x8
Lloh2:
	adrp	x8, lCPI0_1@PAGE
Lloh3:
	ldr	x8, [x8, lCPI0_1@PAGEOFF]
	mov.d	v0[1], x8
Lloh4:
	adrp	x8, lCPI0_2@PAGE
Lloh5:
	ldr	x8, [x8, lCPI0_2@PAGEOFF]
Lloh6:
	adrp	x9, ___stack_chk_guard@GOTPAGE
Lloh7:
	ldr	x9, [x9, ___stack_chk_guard@GOTPAGEOFF]
Lloh8:
	ldr	x9, [x9]
	fmov	d1, x8
Lloh9:
	adrp	x8, lCPI0_3@PAGE
Lloh10:
	ldr	x8, [x8, lCPI0_3@PAGEOFF]
	mov.d	v1[1], x8
	stur	x9, [x29, #-88]
	stp	q0, q1, [x29, #-128]
Lloh11:
	adrp	x8, lCPI0_4@PAGE
Lloh12:
	ldr	x8, [x8, lCPI0_4@PAGEOFF]
	stur	x8, [x29, #-96]
	add	x21, sp, #48
	.loc	1 72 9                          ; direct_threading.c:72:9
	add	x0, sp, #48
	mov	w1, #1024                       ; =0x400
	bl	_bzero
Ltmp6:
	.loc	1 0 9 is_stmt 0                 ; direct_threading.c:0:9
	mov	w22, #0                         ; =0x0
	mov	x25, #0                         ; =0x0
Lloh13:
	adrp	x23, l___const.main.program@PAGE
Lloh14:
	add	x23, x23, l___const.main.program@PAGEOFF
	;DEBUG_VALUE: i <- 0
Ltmp7:
	;DEBUG_VALUE: main:average <- 0
	;DEBUG_VALUE: main:pp <- undef
	sub	x24, x29, #128
Lloh15:
	adrp	x19, l_.str@PAGE
Lloh16:
	add	x19, x19, l_.str@PAGEOFF
	mov	w26, #51712                     ; =0xca00
	movk	w26, #15258, lsl #16
Lloh17:
	adrp	x20, l_.str.1@PAGE
Lloh18:
	add	x20, x20, l_.str.1@PAGEOFF
	mov	x27, x23
	b	LBB0_2
Ltmp8:
Ltmp4:                                  ; Block address taken
LBB0_1:                                 ;   in Loop: Header=BB0_2 Depth=1
	;DEBUG_VALUE: i <- $w22
	;DEBUG_VALUE: main:average <- $x25
	;DEBUG_VALUE: main:pp <- $x27
	.loc	1 78 13 is_stmt 1               ; direct_threading.c:78:13
	cmp	w22, #10
	csel	x25, xzr, x25, eq
Ltmp9:
	;DEBUG_LABEL: do_ret
	;DEBUG_VALUE: main:average <- $x25
	.loc	1 117 9                         ; direct_threading.c:117:9
	add	x1, sp, #16
	mov	w0, #4                          ; =0x4
	bl	_clock_gettime
Ltmp10:
	.loc	1 118 28                        ; direct_threading.c:118:28
	ldp	x8, x9, [sp, #16]
	.loc	1 118 46 is_stmt 0              ; direct_threading.c:118:46
	ldp	x10, x11, [sp, #32]
	.loc	1 118 35                        ; direct_threading.c:118:35
	sub	x8, x8, x10
	.loc	1 118 67                        ; direct_threading.c:118:67
	madd	x8, x8, x26, x9
	.loc	1 118 84                        ; direct_threading.c:118:84
	sub	x8, x8, x11
	.loc	1 118 17                        ; direct_threading.c:118:17
	add	x25, x8, x25
Ltmp11:
	;DEBUG_VALUE: main:average <- $x25
	.loc	1 119 9 is_stmt 1               ; direct_threading.c:119:9
	str	x8, [sp]
	mov	x0, x20
	bl	_printf
Ltmp12:
	.loc	1 76 68                         ; direct_threading.c:76:68
	add	w22, w22, #1
Ltmp13:
	;DEBUG_VALUE: i <- $w22
	;DEBUG_VALUE: main:pp <- $x27
	.loc	1 76 5 is_stmt 0                ; direct_threading.c:76:5
	cmp	w22, #110
	b.eq	LBB0_7
Ltmp14:
LBB0_2:                                 ; =>This Loop Header: Depth=1
                                        ;     Child Loop BB0_3 Depth 2
                                        ;     Child Loop BB0_4 Depth 2
                                        ;     Child Loop BB0_5 Depth 2
                                        ;     Child Loop BB0_6 Depth 2
	;DEBUG_VALUE: main:pp <- $x27
	;DEBUG_VALUE: main:average <- $x25
	;DEBUG_VALUE: i <- $w22
	.loc	1 82 9 is_stmt 1                ; direct_threading.c:82:9
	add	x1, sp, #32
	mov	w0, #4                          ; =0x4
	bl	_clock_gettime
Ltmp15:
	.loc	1 0 0 is_stmt 0                 ; direct_threading.c:0:0
	ldr	w8, [x27]
	and	x9, x8, #0xf
	ldr	x9, [x24, x9, lsl #3]
	br	x9
Ltmp16:
Ltmp0:                                  ; Block address taken
LBB0_3:                                 ;   Parent Loop BB0_2 Depth=1
                                        ; =>  This Inner Loop Header: Depth=2
	;DEBUG_VALUE: i <- $w22
	;DEBUG_VALUE: main:average <- $x25
	;DEBUG_VALUE: main:pp <- $x27
	;DEBUG_LABEL: do_load
	.loc	1 88 38 is_stmt 1               ; direct_threading.c:88:38
	ubfx	w9, w8, #4, #20
	.loc	1 88 9 is_stmt 0                ; direct_threading.c:88:9
	lsr	x8, x8, #22
	and	x8, x8, #0x3fc
	.loc	1 88 36                         ; direct_threading.c:88:36
	str	w9, [x21, x8]
Ltmp17:
	;DEBUG_VALUE: main:pp <- [DW_OP_plus_uconst 4, DW_OP_stack_value] $x27
	.loc	1 0 0                           ; direct_threading.c:0:0
	ldr	w8, [x27, #4]!
Ltmp18:
	and	x9, x8, #0xf
	ldr	x9, [x24, x9, lsl #3]
Ltmp19:
	;DEBUG_VALUE: main:pp <- $x27
	br	x9
Ltmp20:
Ltmp1:                                  ; Block address taken
LBB0_4:                                 ;   Parent Loop BB0_2 Depth=1
                                        ; =>  This Inner Loop Header: Depth=2
	;DEBUG_VALUE: i <- $w22
	;DEBUG_VALUE: main:average <- $x25
	;DEBUG_VALUE: main:pp <- $x27
	;DEBUG_LABEL: do_add
	.loc	1 95 45 is_stmt 1               ; direct_threading.c:95:45
	ubfx	x9, x8, #16, #8
	.loc	1 95 38 is_stmt 0               ; direct_threading.c:95:38
	ldr	w9, [x21, x9, lsl #2]
	.loc	1 95 74                         ; direct_threading.c:95:74
	ubfx	x10, x8, #4, #12
	.loc	1 95 67                         ; direct_threading.c:95:67
	ldr	w10, [x21, x10, lsl #2]
	.loc	1 95 65                         ; direct_threading.c:95:65
	add	w9, w10, w9
	.loc	1 95 9                          ; direct_threading.c:95:9
	lsr	x8, x8, #22
	and	x8, x8, #0x3fc
	.loc	1 95 36                         ; direct_threading.c:95:36
	str	w9, [x21, x8]
Ltmp21:
	;DEBUG_VALUE: main:pp <- [DW_OP_plus_uconst 4, DW_OP_stack_value] $x27
	.loc	1 0 0                           ; direct_threading.c:0:0
	ldr	w8, [x27, #4]!
Ltmp22:
	and	x9, x8, #0xf
	ldr	x9, [x24, x9, lsl #3]
Ltmp23:
	;DEBUG_VALUE: main:pp <- $x27
	br	x9
Ltmp24:
Ltmp2:                                  ; Block address taken
LBB0_5:                                 ;   Parent Loop BB0_2 Depth=1
                                        ; =>  This Inner Loop Header: Depth=2
	;DEBUG_VALUE: i <- $w22
	;DEBUG_VALUE: main:average <- $x25
	;DEBUG_VALUE: main:pp <- $x27
	;DEBUG_LABEL: do_jmpne
	.loc	1 102 20 is_stmt 1              ; direct_threading.c:102:20
	ubfx	x9, x8, #24, #8
	.loc	1 102 13 is_stmt 0              ; direct_threading.c:102:13
	ldr	w9, [x21, w9, uxtw #2]
	.loc	1 102 50                        ; direct_threading.c:102:50
	ubfx	w10, w8, #16, #8
	.loc	1 102 43                        ; direct_threading.c:102:43
	ldr	w10, [x21, w10, uxtw #2]
Ltmp25:
	.loc	1 102 13                        ; direct_threading.c:102:13
	ubfx	w8, w8, #4, #12
	sub	w8, w8, #1
	add	x8, x23, w8, uxtw #2
	cmp	w9, w10
	csel	x8, x27, x8, eq
Ltmp26:
	;DEBUG_VALUE: main:pp <- [DW_OP_plus_uconst 4, DW_OP_stack_value] $x8
	.loc	1 0 0                           ; direct_threading.c:0:0
	add	x27, x8, #4
	ldr	w8, [x27]
Ltmp27:
	and	x9, x8, #0xf
	ldr	x9, [x24, x9, lsl #3]
Ltmp28:
	;DEBUG_VALUE: main:pp <- $x27
	br	x9
Ltmp29:
Ltmp3:                                  ; Block address taken
LBB0_6:                                 ;   Parent Loop BB0_2 Depth=1
                                        ; =>  This Inner Loop Header: Depth=2
	;DEBUG_VALUE: i <- $w22
	;DEBUG_VALUE: main:average <- $x25
	;DEBUG_VALUE: main:pp <- $x27
	;DEBUG_LABEL: do_print
	.loc	1 111 31 is_stmt 1              ; direct_threading.c:111:31
	ubfx	x8, x8, #24, #8
	.loc	1 111 9 is_stmt 0               ; direct_threading.c:111:9
	ldr	w8, [x21, w8, uxtw #2]
	str	x8, [sp]
	mov	x0, x19
	bl	_printf
Ltmp30:
	;DEBUG_VALUE: main:pp <- [DW_OP_plus_uconst 4, DW_OP_stack_value] $x27
	.loc	1 0 0                           ; direct_threading.c:0:0
	ldr	w8, [x27, #4]!
Ltmp31:
	and	x9, x8, #0xf
	ldr	x9, [x24, x9, lsl #3]
Ltmp32:
	;DEBUG_VALUE: main:pp <- $x27
	br	x9
Ltmp33:
LBB0_7:
	;DEBUG_VALUE: main:average <- $x25
	;DEBUG_VALUE: main:pp <- $x27
	mov	x8, #55051                      ; =0xd70b
	movk	x8, #28835, lsl #16
	movk	x8, #2621, lsl #32
	movk	x8, #41943, lsl #48
	.loc	1 122 13 is_stmt 1              ; direct_threading.c:122:13
	smulh	x8, x25, x8
	add	x8, x8, x25
	asr	x9, x8, #6
	add	x8, x9, x8, lsr #63
Ltmp34:
	;DEBUG_VALUE: main:average <- $x8
	.loc	1 0 13 is_stmt 0                ; direct_threading.c:0:13
	mov	w9, #100                        ; =0x64
	.loc	1 123 5 is_stmt 1               ; direct_threading.c:123:5
	stp	x9, x8, [sp]
Lloh19:
	adrp	x0, l_.str.2@PAGE
Lloh20:
	add	x0, x0, l_.str.2@PAGEOFF
	bl	_printf
Ltmp35:
	.loc	1 0 5 is_stmt 0                 ; direct_threading.c:0:5
	ldur	x8, [x29, #-88]
Lloh21:
	adrp	x9, ___stack_chk_guard@GOTPAGE
Lloh22:
	ldr	x9, [x9, ___stack_chk_guard@GOTPAGEOFF]
Lloh23:
	ldr	x9, [x9]
	cmp	x9, x8
	b.ne	LBB0_9
Ltmp36:
; %bb.8:
	;DEBUG_VALUE: main:pp <- $x27
	.loc	1 124 1 is_stmt 1               ; direct_threading.c:124:1
	mov	w0, #0                          ; =0x0
	.loc	1 124 1 epilogue_begin is_stmt 0 ; direct_threading.c:124:1
	add	sp, sp, #1120
	ldp	x29, x30, [sp, #80]             ; 16-byte Folded Reload
	ldp	x20, x19, [sp, #64]             ; 16-byte Folded Reload
	ldp	x22, x21, [sp, #48]             ; 16-byte Folded Reload
	ldp	x24, x23, [sp, #32]             ; 16-byte Folded Reload
	ldp	x26, x25, [sp, #16]             ; 16-byte Folded Reload
	ldp	x28, x27, [sp], #96             ; 16-byte Folded Reload
Ltmp37:
	ret
Ltmp38:
LBB0_9:
	;DEBUG_VALUE: main:pp <- $x27
	.loc	1 0 1                           ; direct_threading.c:0:1
	bl	___stack_chk_fail
Ltmp39:
	.loh AdrpAdd	Lloh17, Lloh18
	.loh AdrpAdd	Lloh15, Lloh16
	.loh AdrpAdd	Lloh13, Lloh14
	.loh AdrpLdr	Lloh11, Lloh12
	.loh AdrpLdr	Lloh9, Lloh10
	.loh AdrpLdrGotLdr	Lloh6, Lloh7, Lloh8
	.loh AdrpLdr	Lloh4, Lloh5
	.loh AdrpLdr	Lloh2, Lloh3
	.loh AdrpLdr	Lloh0, Lloh1
	.loh AdrpLdrGotLdr	Lloh21, Lloh22, Lloh23
	.loh AdrpAdd	Lloh19, Lloh20
Lfunc_end0:
	.cfi_endproc
	.file	3 "/Library/Developer/CommandLineTools/SDKs/MacOSX14.sdk/usr/include/arm" "_types.h"
	.file	4 "/Library/Developer/CommandLineTools/SDKs/MacOSX14.sdk/usr/include/sys/_types" "_timespec.h"
	.file	5 "/Library/Developer/CommandLineTools/SDKs/MacOSX14.sdk/usr/include" "stdio.h"
                                        ; -- End function
	.section	__TEXT,__const
	.p2align	2, 0x0                          ; @__const.main.program
l___const.main.program:
	.long	0                               ; 0x0
	.long	16777232                        ; 0x1000010
	.long	50331632                        ; 0x2fffff0
	.long	17                              ; 0x11
	.long	131122                          ; 0x20032
	.long	3                               ; 0x3
	.long	4                               ; 0x4

	.section	__TEXT,__cstring,cstring_literals
l_.str:                                 ; @.str
	.asciz	"%d\n"

l_.str.1:                               ; @.str.1
	.asciz	"Time elapsed: %10ld ns\n"

l_.str.2:                               ; @.str.2
	.asciz	"Average of %d results: %10ld ns\n"
