	.section	__TEXT,__text,regular,pure_instructions
	.build_version macos, 14, 0
	.file	1 "/Users/kawar/GitHub/rust-instruction-dispatch/C/direct-tail-call-threading" "direct_tail_call_threading.c"
	.file	2 "/Library/Developer/CommandLineTools/SDKs/MacOSX14.sdk/usr/include" "time.h"
	.globl	_main                           ; -- Begin function main
	.p2align	2
_main:                                  ; @main
Lfunc_begin0:
	.loc	1 143 0                         ; direct_tail_call_threading.c:143:0
	.cfi_startproc
; %bb.0:
	stp	x28, x27, [sp, #-64]!           ; 16-byte Folded Spill
	stp	x22, x21, [sp, #16]             ; 16-byte Folded Spill
	stp	x20, x19, [sp, #32]             ; 16-byte Folded Spill
	stp	x29, x30, [sp, #48]             ; 16-byte Folded Spill
	add	x29, sp, #48
	sub	sp, sp, #1248
	.cfi_def_cfa w29, 16
	.cfi_offset w30, -8
	.cfi_offset w29, -16
	.cfi_offset w19, -24
	.cfi_offset w20, -32
	.cfi_offset w21, -40
	.cfi_offset w22, -48
	.cfi_offset w27, -56
	.cfi_offset w28, -64
Lloh0:
	adrp	x8, ___stack_chk_guard@GOTPAGE
Lloh1:
	ldr	x8, [x8, ___stack_chk_guard@GOTPAGEOFF]
Lloh2:
	ldr	x8, [x8]
	stur	x8, [x29, #-56]
Ltmp0:
	.loc	1 157 9 prologue_end            ; direct_tail_call_threading.c:157:9
	add	x0, sp, #48
	mov	w1, #1024                       ; =0x400
	bl	_bzero
Ltmp1:
	.loc	1 0 9 is_stmt 0                 ; direct_tail_call_threading.c:0:9
	sub	x8, x29, #224
Lloh3:
	adrp	x9, l___const.main.program@PAGE
Lloh4:
	add	x9, x9, l___const.main.program@PAGEOFF
Lloh5:
	adrp	x10, LJTI0_0@PAGE
Lloh6:
	add	x10, x10, LJTI0_0@PAGEOFF
Lloh7:
	adrp	x12, _load@PAGE
Lloh8:
	add	x12, x12, _load@PAGEOFF
Lloh9:
	adrp	x13, _add@PAGE
Lloh10:
	add	x13, x13, _add@PAGEOFF
Ltmp2:
	;DEBUG_VALUE: convert:instructions <- $x9
	;DEBUG_VALUE: convert:i <- 0
	;DEBUG_VALUE: convert:internal_instructions <- [DW_OP_constu 224, DW_OP_minus, DW_OP_stack_value] $fp
	.loc	1 109 5 is_stmt 1               ; direct_tail_call_threading.c:109:5
	add	x11, x8, #8
Lloh11:
	adrp	x14, _jmpne@PAGE
Lloh12:
	add	x14, x14, _jmpne@PAGEOFF
	mov	w15, #24                        ; =0x18
Lloh13:
	adrp	x16, _print@PAGE
Lloh14:
	add	x16, x16, _print@PAGEOFF
	b	LBB0_3
Ltmp3:
LBB0_1:                                 ;   in Loop: Header=BB0_3 Depth=1
	;DEBUG_VALUE: convert:i <- [DW_OP_LLVM_arg 0, DW_OP_consts 8, DW_OP_LLVM_arg 1, DW_OP_constu 224, DW_OP_minus, DW_OP_plus, DW_OP_minus, DW_OP_consts 24, DW_OP_div, DW_OP_stack_value] $x11, $fp
	;DEBUG_VALUE: convert:internal_instructions <- [DW_OP_constu 224, DW_OP_minus, DW_OP_stack_value] $fp
	.loc	1 131 46                        ; direct_tail_call_threading.c:131:46
	stur	x16, [x11, #-8]
	.loc	1 132 42                        ; direct_tail_call_threading.c:132:42
	ubfx	x17, x17, #24, #8
	.loc	1 132 40 is_stmt 0              ; direct_tail_call_threading.c:132:40
	strb	w17, [x11]
Ltmp4:
LBB0_2:                                 ;   in Loop: Header=BB0_3 Depth=1
	;DEBUG_VALUE: convert:i <- [DW_OP_LLVM_arg 0, DW_OP_consts 8, DW_OP_LLVM_arg 1, DW_OP_constu 224, DW_OP_minus, DW_OP_plus, DW_OP_minus, DW_OP_consts 24, DW_OP_div, DW_OP_stack_value] $x11, $fp
	;DEBUG_VALUE: convert:internal_instructions <- [DW_OP_constu 224, DW_OP_minus, DW_OP_stack_value] $fp
	;DEBUG_VALUE: convert:i <- [DW_OP_LLVM_arg 0, DW_OP_consts 8, DW_OP_LLVM_arg 1, DW_OP_constu 224, DW_OP_minus, DW_OP_plus, DW_OP_minus, DW_OP_consts 24, DW_OP_div, DW_OP_consts 1, DW_OP_plus, DW_OP_stack_value] $x11, $fp
	.loc	1 109 5 is_stmt 1               ; direct_tail_call_threading.c:109:5
	add	x11, x11, #24
Ltmp5:
LBB0_3:                                 ; =>This Inner Loop Header: Depth=1
	;DEBUG_VALUE: convert:internal_instructions <- [DW_OP_constu 224, DW_OP_minus, DW_OP_stack_value] $fp
	;DEBUG_VALUE: convert:i <- [DW_OP_LLVM_arg 0, DW_OP_consts 8, DW_OP_LLVM_arg 1, DW_OP_constu 224, DW_OP_minus, DW_OP_plus, DW_OP_minus, DW_OP_consts 24, DW_OP_div, DW_OP_stack_value] $x11, $fp
	.loc	1 111 17                        ; direct_tail_call_threading.c:111:17
	ldr	w17, [x9], #4
	.loc	1 111 9 is_stmt 0               ; direct_tail_call_threading.c:111:9
	and	x0, x17, #0xf
	cmp	w0, #4
	b.hi	LBB0_2
Ltmp6:
; %bb.4:                                ;   in Loop: Header=BB0_3 Depth=1
	;DEBUG_VALUE: convert:i <- [DW_OP_LLVM_arg 0, DW_OP_consts 8, DW_OP_LLVM_arg 1, DW_OP_constu 224, DW_OP_minus, DW_OP_plus, DW_OP_minus, DW_OP_consts 24, DW_OP_div, DW_OP_stack_value] $x11, $fp
	;DEBUG_VALUE: convert:internal_instructions <- [DW_OP_constu 224, DW_OP_minus, DW_OP_stack_value] $fp
	.loc	1 0 9                           ; direct_tail_call_threading.c:0:9
	adr	x1, LBB0_1
	ldrb	w2, [x10, x0]
	add	x1, x1, x2, lsl #2
	br	x1
Ltmp7:
LBB0_5:                                 ;   in Loop: Header=BB0_3 Depth=1
	;DEBUG_VALUE: convert:i <- [DW_OP_LLVM_arg 0, DW_OP_consts 8, DW_OP_LLVM_arg 1, DW_OP_constu 224, DW_OP_minus, DW_OP_plus, DW_OP_minus, DW_OP_consts 24, DW_OP_div, DW_OP_stack_value] $x11, $fp
	;DEBUG_VALUE: convert:internal_instructions <- [DW_OP_constu 224, DW_OP_minus, DW_OP_stack_value] $fp
	.loc	1 114 46 is_stmt 1              ; direct_tail_call_threading.c:114:46
	stur	x12, [x11, #-8]
	.loc	1 115 42                        ; direct_tail_call_threading.c:115:42
	ubfx	x0, x17, #24, #8
	.loc	1 115 40 is_stmt 0              ; direct_tail_call_threading.c:115:40
	strb	w0, [x11]
	.loc	1 116 44 is_stmt 1              ; direct_tail_call_threading.c:116:44
	ubfx	w17, w17, #4, #20
	.loc	1 116 42 is_stmt 0              ; direct_tail_call_threading.c:116:42
	str	w17, [x11, #8]
Ltmp8:
	;DEBUG_VALUE: convert:i <- [DW_OP_LLVM_arg 0, DW_OP_consts 8, DW_OP_LLVM_arg 1, DW_OP_constu 224, DW_OP_minus, DW_OP_plus, DW_OP_minus, DW_OP_consts 24, DW_OP_div, DW_OP_consts 1, DW_OP_plus, DW_OP_stack_value] $x11, $fp
	.loc	1 109 5 is_stmt 1               ; direct_tail_call_threading.c:109:5
	add	x11, x11, #24
Ltmp9:
	.loc	1 0 5 is_stmt 0                 ; direct_tail_call_threading.c:0:5
	b	LBB0_3
Ltmp10:
LBB0_6:                                 ;   in Loop: Header=BB0_3 Depth=1
	;DEBUG_VALUE: convert:i <- [DW_OP_LLVM_arg 0, DW_OP_consts 8, DW_OP_LLVM_arg 1, DW_OP_constu 224, DW_OP_minus, DW_OP_plus, DW_OP_minus, DW_OP_consts 24, DW_OP_div, DW_OP_stack_value] $x11, $fp
	;DEBUG_VALUE: convert:internal_instructions <- [DW_OP_constu 224, DW_OP_minus, DW_OP_stack_value] $fp
	.loc	1 119 46 is_stmt 1              ; direct_tail_call_threading.c:119:46
	stur	x13, [x11, #-8]
	.loc	1 120 42                        ; direct_tail_call_threading.c:120:42
	ubfx	x0, x17, #24, #8
	.loc	1 120 40 is_stmt 0              ; direct_tail_call_threading.c:120:40
	strb	w0, [x11]
	.loc	1 121 42 is_stmt 1              ; direct_tail_call_threading.c:121:42
	ubfx	x0, x17, #16, #16
	.loc	1 121 40 is_stmt 0              ; direct_tail_call_threading.c:121:40
	strb	w0, [x11, #1]
	.loc	1 122 42 is_stmt 1              ; direct_tail_call_threading.c:122:42
	ubfx	x17, x17, #4, #28
	.loc	1 122 40 is_stmt 0              ; direct_tail_call_threading.c:122:40
	strb	w17, [x11, #8]
Ltmp11:
	;DEBUG_VALUE: convert:i <- [DW_OP_LLVM_arg 0, DW_OP_consts 8, DW_OP_LLVM_arg 1, DW_OP_constu 224, DW_OP_minus, DW_OP_plus, DW_OP_minus, DW_OP_consts 24, DW_OP_div, DW_OP_consts 1, DW_OP_plus, DW_OP_stack_value] $x11, $fp
	.loc	1 109 5 is_stmt 1               ; direct_tail_call_threading.c:109:5
	add	x11, x11, #24
Ltmp12:
	.loc	1 0 5 is_stmt 0                 ; direct_tail_call_threading.c:0:5
	b	LBB0_3
Ltmp13:
LBB0_7:                                 ;   in Loop: Header=BB0_3 Depth=1
	;DEBUG_VALUE: convert:i <- [DW_OP_LLVM_arg 0, DW_OP_consts 8, DW_OP_LLVM_arg 1, DW_OP_constu 224, DW_OP_minus, DW_OP_plus, DW_OP_minus, DW_OP_consts 24, DW_OP_div, DW_OP_stack_value] $x11, $fp
	;DEBUG_VALUE: convert:internal_instructions <- [DW_OP_constu 224, DW_OP_minus, DW_OP_stack_value] $fp
	.loc	1 125 46 is_stmt 1              ; direct_tail_call_threading.c:125:46
	stur	x14, [x11, #-8]
	.loc	1 126 42                        ; direct_tail_call_threading.c:126:42
	ubfx	x0, x17, #24, #8
	.loc	1 126 40 is_stmt 0              ; direct_tail_call_threading.c:126:40
	strb	w0, [x11]
	.loc	1 127 42 is_stmt 1              ; direct_tail_call_threading.c:127:42
	ubfx	x0, x17, #16, #16
	.loc	1 127 40 is_stmt 0              ; direct_tail_call_threading.c:127:40
	strb	w0, [x11, #1]
	.loc	1 128 67 is_stmt 1              ; direct_tail_call_threading.c:128:67
	ubfx	x17, x17, #4, #12
	.loc	1 128 45 is_stmt 0              ; direct_tail_call_threading.c:128:45
	umaddl	x17, w17, w15, x8
	.loc	1 128 42                        ; direct_tail_call_threading.c:128:42
	str	x17, [x11, #8]
Ltmp14:
	;DEBUG_VALUE: convert:i <- [DW_OP_LLVM_arg 0, DW_OP_consts 8, DW_OP_LLVM_arg 1, DW_OP_constu 224, DW_OP_minus, DW_OP_plus, DW_OP_minus, DW_OP_consts 24, DW_OP_div, DW_OP_consts 1, DW_OP_plus, DW_OP_stack_value] $x11, $fp
	.loc	1 109 5 is_stmt 1               ; direct_tail_call_threading.c:109:5
	add	x11, x11, #24
Ltmp15:
	.loc	1 0 5 is_stmt 0                 ; direct_tail_call_threading.c:0:5
	b	LBB0_3
Ltmp16:
LBB0_8:
	;DEBUG_VALUE: convert:i <- [DW_OP_LLVM_arg 0, DW_OP_consts 8, DW_OP_LLVM_arg 1, DW_OP_constu 224, DW_OP_minus, DW_OP_plus, DW_OP_minus, DW_OP_consts 24, DW_OP_div, DW_OP_stack_value] $x11, $fp
	;DEBUG_VALUE: convert:internal_instructions <- [DW_OP_constu 224, DW_OP_minus, DW_OP_stack_value] $fp
	mov	x22, #0                         ; =0x0
Ltmp17:
	.loc	1 135 46 is_stmt 1              ; direct_tail_call_threading.c:135:46
Lloh15:
	adrp	x8, _ret@PAGE
Lloh16:
	add	x8, x8, _ret@PAGEOFF
	stur	x8, [x11, #-8]
	mov	w20, #110                       ; =0x6e
	;DEBUG_VALUE: i <- 0
Ltmp18:
	;DEBUG_VALUE: main:average <- 0
	.loc	1 0 46 is_stmt 0                ; direct_tail_call_threading.c:0:46
	mov	w21, #51712                     ; =0xca00
	movk	w21, #15258, lsl #16
Lloh17:
	adrp	x19, l_.str@PAGE
Lloh18:
	add	x19, x19, l_.str@PAGEOFF
Ltmp19:
LBB0_9:                                 ; =>This Inner Loop Header: Depth=1
	;DEBUG_VALUE: main:average <- $x22
	;DEBUG_VALUE: i <- [DW_OP_consts 110, DW_OP_minus, DW_OP_consts 18446744073709551615, DW_OP_div, DW_OP_stack_value] $w20
	.loc	1 164 13 is_stmt 1              ; direct_tail_call_threading.c:164:13
	cmp	w20, #100
	csel	x22, xzr, x22, eq
Ltmp20:
	;DEBUG_VALUE: main:average <- $x22
	.loc	1 168 9                         ; direct_tail_call_threading.c:168:9
	add	x1, sp, #32
	mov	w0, #4                          ; =0x4
	bl	_clock_gettime
Ltmp21:
	.loc	1 169 29                        ; direct_tail_call_threading.c:169:29
	ldur	x8, [x29, #-224]
	.loc	1 169 9 is_stmt 0               ; direct_tail_call_threading.c:169:9
	sub	x0, x29, #224
	add	x1, sp, #48
	blr	x8
Ltmp22:
	.loc	1 170 9 is_stmt 1               ; direct_tail_call_threading.c:170:9
	add	x1, sp, #16
	mov	w0, #4                          ; =0x4
	bl	_clock_gettime
Ltmp23:
	.loc	1 171 28                        ; direct_tail_call_threading.c:171:28
	ldp	x8, x9, [sp, #16]
	.loc	1 171 46 is_stmt 0              ; direct_tail_call_threading.c:171:46
	ldp	x10, x11, [sp, #32]
	.loc	1 171 35                        ; direct_tail_call_threading.c:171:35
	sub	x8, x8, x10
	.loc	1 171 67                        ; direct_tail_call_threading.c:171:67
	madd	x8, x8, x21, x9
	.loc	1 171 84                        ; direct_tail_call_threading.c:171:84
	sub	x8, x8, x11
	.loc	1 171 17                        ; direct_tail_call_threading.c:171:17
	add	x22, x8, x22
Ltmp24:
	;DEBUG_VALUE: main:average <- $x22
	.loc	1 172 9 is_stmt 1               ; direct_tail_call_threading.c:172:9
	str	x8, [sp]
	mov	x0, x19
	bl	_printf
Ltmp25:
	;DEBUG_VALUE: i <- [DW_OP_consts 110, DW_OP_minus, DW_OP_consts 18446744073709551615, DW_OP_div, DW_OP_consts 1, DW_OP_plus, DW_OP_stack_value] $w20
	.loc	1 162 23                        ; direct_tail_call_threading.c:162:23
	subs	w20, w20, #1
Ltmp26:
	.loc	1 162 5 is_stmt 0               ; direct_tail_call_threading.c:162:5
	b.ne	LBB0_9
Ltmp27:
; %bb.10:
	;DEBUG_VALUE: main:average <- $x22
	.loc	1 0 5                           ; direct_tail_call_threading.c:0:5
	mov	x8, #55051                      ; =0xd70b
	movk	x8, #28835, lsl #16
	movk	x8, #2621, lsl #32
	movk	x8, #41943, lsl #48
	.loc	1 175 13 is_stmt 1              ; direct_tail_call_threading.c:175:13
	smulh	x8, x22, x8
	add	x8, x8, x22
	asr	x9, x8, #6
	add	x8, x9, x8, lsr #63
Ltmp28:
	;DEBUG_VALUE: main:average <- $x8
	.loc	1 0 13 is_stmt 0                ; direct_tail_call_threading.c:0:13
	mov	w9, #100                        ; =0x64
	.loc	1 176 5 is_stmt 1               ; direct_tail_call_threading.c:176:5
	stp	x9, x8, [sp]
Lloh19:
	adrp	x0, l_.str.1@PAGE
Lloh20:
	add	x0, x0, l_.str.1@PAGEOFF
	bl	_printf
Ltmp29:
	.loc	1 0 5 is_stmt 0                 ; direct_tail_call_threading.c:0:5
	ldur	x8, [x29, #-56]
Lloh21:
	adrp	x9, ___stack_chk_guard@GOTPAGE
Lloh22:
	ldr	x9, [x9, ___stack_chk_guard@GOTPAGEOFF]
Lloh23:
	ldr	x9, [x9]
	cmp	x9, x8
	b.ne	LBB0_12
; %bb.11:
	.loc	1 177 1 is_stmt 1               ; direct_tail_call_threading.c:177:1
	mov	w0, #0                          ; =0x0
	.loc	1 177 1 epilogue_begin is_stmt 0 ; direct_tail_call_threading.c:177:1
	add	sp, sp, #1248
	ldp	x29, x30, [sp, #48]             ; 16-byte Folded Reload
	ldp	x20, x19, [sp, #32]             ; 16-byte Folded Reload
	ldp	x22, x21, [sp, #16]             ; 16-byte Folded Reload
	ldp	x28, x27, [sp], #64             ; 16-byte Folded Reload
	ret
Ltmp30:
LBB0_12:
	.loc	1 0 1                           ; direct_tail_call_threading.c:0:1
	bl	___stack_chk_fail
Ltmp31:
	.loh AdrpAdd	Lloh13, Lloh14
	.loh AdrpAdd	Lloh11, Lloh12
	.loh AdrpAdd	Lloh9, Lloh10
	.loh AdrpAdd	Lloh7, Lloh8
	.loh AdrpAdd	Lloh5, Lloh6
	.loh AdrpAdd	Lloh3, Lloh4
	.loh AdrpLdrGotLdr	Lloh0, Lloh1, Lloh2
	.loh AdrpAdd	Lloh17, Lloh18
	.loh AdrpAdd	Lloh15, Lloh16
	.loh AdrpLdrGotLdr	Lloh21, Lloh22, Lloh23
	.loh AdrpAdd	Lloh19, Lloh20
Lfunc_end0:
	.cfi_endproc
	.section	__TEXT,__const
LJTI0_0:
	.byte	(LBB0_5-LBB0_1)>>2
	.byte	(LBB0_6-LBB0_1)>>2
	.byte	(LBB0_7-LBB0_1)>>2
	.byte	(LBB0_1-LBB0_1)>>2
	.byte	(LBB0_8-LBB0_1)>>2
	.file	3 "/Library/Developer/CommandLineTools/SDKs/MacOSX14.sdk/usr/include/arm" "_types.h"
	.file	4 "/Library/Developer/CommandLineTools/SDKs/MacOSX14.sdk/usr/include/sys/_types" "_timespec.h"
	.file	5 "/Library/Developer/CommandLineTools/SDKs/MacOSX14.sdk/usr/include" "stdio.h"
                                        ; -- End function
	.section	__TEXT,__text,regular,pure_instructions
	.p2align	2                               ; -- Begin function load
_load:                                  ; @load
Lfunc_begin1:
	.cfi_startproc
; %bb.0:
	;DEBUG_VALUE: load:instruction <- $x0
	;DEBUG_VALUE: load:memory <- $x1
	.loc	1 69 5 prologue_end is_stmt 1   ; direct_tail_call_threading.c:69:5
	ldr	x2, [x0, #24]!
Ltmp32:
	;DEBUG_VALUE: load:instruction <- $x0
	.loc	1 67 43                         ; direct_tail_call_threading.c:67:43
	ldur	w8, [x0, #-8]
	.loc	1 67 25 is_stmt 0               ; direct_tail_call_threading.c:67:25
	ldurb	w9, [x0, #-16]
	.loc	1 67 28                         ; direct_tail_call_threading.c:67:28
	str	w8, [x1, x9, lsl #2]
Ltmp33:
	.loc	1 69 5 is_stmt 1                ; direct_tail_call_threading.c:69:5
	br	x2
Ltmp34:
Lfunc_end1:
	.cfi_endproc
                                        ; -- End function
	.p2align	2                               ; -- Begin function add
_add:                                   ; @add
Lfunc_begin2:
	.cfi_startproc
; %bb.0:
	;DEBUG_VALUE: add:instruction <- $x0
	;DEBUG_VALUE: add:memory <- $x1
	.loc	1 77 5 prologue_end             ; direct_tail_call_threading.c:77:5
	ldr	x2, [x0, #24]!
Ltmp35:
	;DEBUG_VALUE: add:instruction <- $x0
	.loc	1 75 50                         ; direct_tail_call_threading.c:75:50
	ldurb	w8, [x0, #-15]
	.loc	1 75 30 is_stmt 0               ; direct_tail_call_threading.c:75:30
	ldr	w8, [x1, x8, lsl #2]
	.loc	1 75 75                         ; direct_tail_call_threading.c:75:75
	ldurb	w9, [x0, #-8]
	.loc	1 75 55                         ; direct_tail_call_threading.c:75:55
	ldr	w9, [x1, x9, lsl #2]
	.loc	1 75 53                         ; direct_tail_call_threading.c:75:53
	add	w8, w9, w8
	.loc	1 75 25                         ; direct_tail_call_threading.c:75:25
	ldurb	w9, [x0, #-16]
	.loc	1 75 28                         ; direct_tail_call_threading.c:75:28
	str	w8, [x1, x9, lsl #2]
Ltmp36:
	.loc	1 77 5 is_stmt 1                ; direct_tail_call_threading.c:77:5
	br	x2
Ltmp37:
Lfunc_end2:
	.cfi_endproc
                                        ; -- End function
	.p2align	2                               ; -- Begin function jmpne
_jmpne:                                 ; @jmpne
Lfunc_begin3:
	.cfi_startproc
; %bb.0:
	;DEBUG_VALUE: jmpne:instruction <- $x0
	;DEBUG_VALUE: jmpne:memory <- $x1
	.loc	1 83 29 prologue_end            ; direct_tail_call_threading.c:83:29
	ldrb	w8, [x0, #8]
	.loc	1 83 9 is_stmt 0                ; direct_tail_call_threading.c:83:9
	ldr	w8, [x1, x8, lsl #2]
	.loc	1 83 55                         ; direct_tail_call_threading.c:83:55
	ldrb	w9, [x0, #9]
	.loc	1 83 35                         ; direct_tail_call_threading.c:83:35
	ldr	w9, [x1, x9, lsl #2]
Ltmp38:
	.loc	1 83 9                          ; direct_tail_call_threading.c:83:9
	cmp	w8, w9
	b.ne	LBB3_2
Ltmp39:
; %bb.1:
	;DEBUG_VALUE: jmpne:memory <- $x1
	;DEBUG_VALUE: jmpne:instruction <- $x0
	;DEBUG_VALUE: jmpne:instruction <- $x0
	;DEBUG_VALUE: jmpne:instruction <- $x0
	.loc	1 91 5 is_stmt 1                ; direct_tail_call_threading.c:91:5
	ldr	x2, [x0, #24]!
Ltmp40:
	br	x2
Ltmp41:
LBB3_2:
	;DEBUG_VALUE: jmpne:memory <- $x1
	;DEBUG_VALUE: jmpne:instruction <- $x0
	.loc	1 85 36                         ; direct_tail_call_threading.c:85:36
	ldr	x0, [x0, #16]
Ltmp42:
	;DEBUG_VALUE: jmpne:instruction <- $x0
	;DEBUG_VALUE: jmpne:instruction <- $x0
	.loc	1 91 5                          ; direct_tail_call_threading.c:91:5
	ldr	x2, [x0]
Ltmp43:
	br	x2
Ltmp44:
Lfunc_end3:
	.cfi_endproc
                                        ; -- End function
	.p2align	2                               ; -- Begin function print
_print:                                 ; @print
Lfunc_begin4:
	.loc	1 96 0                          ; direct_tail_call_threading.c:96:0
	.cfi_startproc
; %bb.0:
	;DEBUG_VALUE: print:instruction <- $x0
	;DEBUG_VALUE: print:memory <- $x1
	sub	sp, sp, #48
	stp	x20, x19, [sp, #16]             ; 16-byte Folded Spill
	stp	x29, x30, [sp, #32]             ; 16-byte Folded Spill
	add	x29, sp, #32
	.cfi_def_cfa w29, 16
	.cfi_offset w30, -8
	.cfi_offset w29, -16
	.cfi_offset w19, -24
	.cfi_offset w20, -32
	mov	x19, x1
Ltmp45:
	;DEBUG_VALUE: print:memory <- $x19
	mov	x20, x0
Ltmp46:
	;DEBUG_VALUE: print:instruction <- $x20
	.loc	1 97 40 prologue_end            ; direct_tail_call_threading.c:97:40
	ldrb	w8, [x0, #8]
	.loc	1 97 5 is_stmt 0                ; direct_tail_call_threading.c:97:5
	ldr	w8, [x1, x8, lsl #2]
	str	x8, [sp]
Lloh24:
	adrp	x0, l_.str.2@PAGE
Lloh25:
	add	x0, x0, l_.str.2@PAGEOFF
	bl	_printf
Ltmp47:
	.loc	1 99 5 is_stmt 1                ; direct_tail_call_threading.c:99:5
	ldr	x2, [x20, #24]!
Ltmp48:
	;DEBUG_VALUE: print:instruction <- $x20
	mov	x0, x20
	mov	x1, x19
	.loc	1 99 5 epilogue_begin is_stmt 0 ; direct_tail_call_threading.c:99:5
	ldp	x29, x30, [sp, #32]             ; 16-byte Folded Reload
	ldp	x20, x19, [sp, #16]             ; 16-byte Folded Reload
Ltmp49:
	;DEBUG_VALUE: print:memory <- [DW_OP_LLVM_entry_value 1] $x1
	add	sp, sp, #48
Ltmp50:
	br	x2
Ltmp51:
	.loh AdrpAdd	Lloh24, Lloh25
Lfunc_end4:
	.cfi_endproc
                                        ; -- End function
	.p2align	2                               ; -- Begin function ret
_ret:                                   ; @ret
Lfunc_begin5:
	.cfi_startproc
; %bb.0:
	;DEBUG_VALUE: ret:instruction <- undef
	;DEBUG_VALUE: ret:memory <- undef
	.loc	1 103 40 prologue_end is_stmt 1 ; direct_tail_call_threading.c:103:40
	ret
Ltmp52:
Lfunc_end5:
	.cfi_endproc
                                        ; -- End function
	.section	__TEXT,__const
	.p2align	2, 0x0                          ; @__const.main.program
l___const.main.program:
	.long	0                               ; 0x0
	.long	16777232                        ; 0x1000010
	.long	50331632                        ; 0x2fffff0
	.long	17                              ; 0x11
	.long	131122                          ; 0x20032
	.long	3                               ; 0x3
	.long	4                               ; 0x4

	.section	__TEXT,__cstring,cstring_literals
l_.str:                                 ; @.str
	.asciz	"Time elapsed: %10ld ns\n"

l_.str.1:                               ; @.str.1
	.asciz	"Average of %d results: %10ld ns\n"

l_.str.2:                               ; @.str.2
	.asciz	"%d\n"
