	.text
	.file	"internal_instruction.c"
	.file	0 "/mnt/c/Users/kawar/Documents/GitHub/rust-instruction-dispatch/C/direct-tail-call-threading" "internal_instruction.c" md5 0xb7507d1ec52da7462015488ae670cffa source "#include <stdio.h>\n\n#include \"bytecode.h\"\n#include \"internal_instruction.h\"\n\n#define NEXT_INSTRUCTION                                                   \\\n    do                                                                     \\\n    {                                                                      \\\n        __attribute__((musttail)) return instruction->handler(instruction, \\\n                                                              memory);     \\\n    } while (0)\n\n#pragma clang diagnostic push\n#pragma clang diagnostic ignored \"-Wformat\"\n\nvoid load(internal_instruction_t *restrict instruction,\n                 int *restrict memory)\n{\n#ifdef DEBUG\n    printf(\"%x: load memory[%d] = %d\\n\", instruction, instruction->a, instruction->imm);\n#endif\n    memory[instruction->a] = instruction->imm;\n    instruction++;\n    NEXT_INSTRUCTION;\n}\n\nvoid add(internal_instruction_t *restrict instruction,\n                int *restrict memory)\n{\n#ifdef DEBUG\n    printf(\"%x: add memory[%d](%d) = memory[%d] + memory[%d]\\n\", instruction, instruction->a,\n           memory[instruction->a], instruction->b, instruction->c);\n#endif\n    memory[instruction->a] = memory[instruction->b] + memory[instruction->c];\n    instruction++;\n    NEXT_INSTRUCTION;\n}\n\nvoid jmpne(internal_instruction_t *restrict instruction,\n                  int *restrict memory)\n{\n#ifdef DEBUG\n    printf(\"%x: jmpne if memory[%d](%d) != memory[%d](%d) then pp = %x\\n\", instruction, instruction->a,\n           memory[instruction->a], instruction->b, memory[instruction->b], instruction->jmp);\n#endif\n    if (memory[instruction->a] != memory[instruction->b])\n    {\n        instruction = instruction->jmp;\n    }\n    else\n    {\n        instruction++;\n    }\n    NEXT_INSTRUCTION;\n}\n\nvoid print(internal_instruction_t *restrict instruction,\n                  int *restrict memory)\n{\n#ifdef DEBUG\n    printf(\"%x: print memory[%d](%d)\\n\", instruction, instruction->a, memory[instruction->a]);\n#endif\n    printf(\"%d\\n\", memory[instruction->a]);\n    instruction++;\n    NEXT_INSTRUCTION;\n}\n\nvoid ret(internal_instruction_t *restrict instruction,\n                int *restrict memory)\n{\n#ifdef DEBUG\n    printf(\"%x: ret\\n\", instruction);\n#endif\n}\n\n#pragma clang diagnostic pop\n\nvoid vm_loop(internal_instruction_t *internal_program)\n{\n    int memory[256] = {0};\n\n    internal_program[0].handler(internal_program, memory);\n}\n"
	.globl	load                            # -- Begin function load
	.p2align	4, 0x90
	.type	load,@function
load:                                   # @load
.Lfunc_begin0:
	.loc	0 18 0                          # internal_instruction.c:18:0
	.cfi_startproc
# %bb.0:
	#DEBUG_VALUE: load:instruction <- $rdi
	#DEBUG_VALUE: load:memory <- $rsi
	pushq	%r14
	.cfi_def_cfa_offset 16
	pushq	%rbx
	.cfi_def_cfa_offset 24
	pushq	%rax
	.cfi_def_cfa_offset 32
	.cfi_offset %rbx, -24
	.cfi_offset %r14, -16
	movq	%rsi, %r14
	movq	%rdi, %rbx
.Ltmp0:
	.loc	0 20 68 prologue_end            # internal_instruction.c:20:68
	movzbl	8(%rdi), %edx
	.loc	0 20 84 is_stmt 0               # internal_instruction.c:20:84
	movl	16(%rdi), %ecx
	.loc	0 20 5                          # internal_instruction.c:20:5
	leaq	.L.str(%rip), %rdi
.Ltmp1:
	#DEBUG_VALUE: load:instruction <- $rbx
	movq	%rbx, %rsi
.Ltmp2:
	#DEBUG_VALUE: load:memory <- $r14
	xorl	%eax, %eax
	callq	printf@PLT
.Ltmp3:
	.loc	0 22 43 is_stmt 1               # internal_instruction.c:22:43
	movl	16(%rbx), %eax
	.loc	0 22 25 is_stmt 0               # internal_instruction.c:22:25
	movzbl	8(%rbx), %ecx
	.loc	0 22 28                         # internal_instruction.c:22:28
	movl	%eax, (%r14,%rcx,4)
.Ltmp4:
	.loc	0 24 5 is_stmt 1                # internal_instruction.c:24:5
	movq	24(%rbx), %rax
.Ltmp5:
	.loc	0 23 16                         # internal_instruction.c:23:16
	addq	$24, %rbx
.Ltmp6:
	#DEBUG_VALUE: load:instruction <- [DW_OP_LLVM_entry_value 1] $rdi
	#DEBUG_VALUE: load:instruction <- $rbx
	.loc	0 24 5                          # internal_instruction.c:24:5
	movq	%rbx, %rdi
	movq	%r14, %rsi
	addq	$8, %rsp
	.cfi_def_cfa_offset 24
	popq	%rbx
.Ltmp7:
	#DEBUG_VALUE: load:instruction <- $rdi
	.cfi_def_cfa_offset 16
	popq	%r14
.Ltmp8:
	#DEBUG_VALUE: load:memory <- $rsi
	.cfi_def_cfa_offset 8
	jmpq	*%rax                           # TAILCALL
.Ltmp9:
.Lfunc_end0:
	.size	load, .Lfunc_end0-load
	.cfi_endproc
                                        # -- End function
	.globl	add                             # -- Begin function add
	.p2align	4, 0x90
	.type	add,@function
add:                                    # @add
.Lfunc_begin1:
	.loc	0 29 0                          # internal_instruction.c:29:0
	.cfi_startproc
# %bb.0:
	#DEBUG_VALUE: add:instruction <- $rdi
	#DEBUG_VALUE: add:memory <- $rsi
	pushq	%r14
	.cfi_def_cfa_offset 16
	pushq	%rbx
	.cfi_def_cfa_offset 24
	pushq	%rax
	.cfi_def_cfa_offset 32
	.cfi_offset %rbx, -24
	.cfi_offset %r14, -16
	movq	%rsi, %r14
	movq	%rdi, %rbx
.Ltmp10:
	.loc	0 31 92 prologue_end            # internal_instruction.c:31:92
	movzbl	8(%rdi), %edx
	.loc	0 32 12                         # internal_instruction.c:32:12
	movl	(%rsi,%rdx,4), %ecx
	.loc	0 32 49 is_stmt 0               # internal_instruction.c:32:49
	movzbl	9(%rdi), %r8d
	.loc	0 32 65                         # internal_instruction.c:32:65
	movzbl	16(%rdi), %r9d
	.loc	0 31 5 is_stmt 1                # internal_instruction.c:31:5
	leaq	.L.str.1(%rip), %rdi
.Ltmp11:
	#DEBUG_VALUE: add:instruction <- $rbx
	movq	%rbx, %rsi
.Ltmp12:
	#DEBUG_VALUE: add:memory <- $r14
                                        # kill: def $edx killed $edx killed $rdx
	xorl	%eax, %eax
	callq	printf@PLT
.Ltmp13:
	.loc	0 34 50                         # internal_instruction.c:34:50
	movzbl	9(%rbx), %eax
	.loc	0 34 75 is_stmt 0               # internal_instruction.c:34:75
	movzbl	16(%rbx), %ecx
	.loc	0 34 55                         # internal_instruction.c:34:55
	movl	(%r14,%rcx,4), %ecx
	.loc	0 34 53                         # internal_instruction.c:34:53
	addl	(%r14,%rax,4), %ecx
	.loc	0 34 25                         # internal_instruction.c:34:25
	movzbl	8(%rbx), %eax
	.loc	0 34 28                         # internal_instruction.c:34:28
	movl	%ecx, (%r14,%rax,4)
.Ltmp14:
	.loc	0 36 5 is_stmt 1                # internal_instruction.c:36:5
	movq	24(%rbx), %rax
.Ltmp15:
	.loc	0 35 16                         # internal_instruction.c:35:16
	addq	$24, %rbx
.Ltmp16:
	#DEBUG_VALUE: add:instruction <- [DW_OP_LLVM_entry_value 1] $rdi
	#DEBUG_VALUE: add:instruction <- $rbx
	.loc	0 36 5                          # internal_instruction.c:36:5
	movq	%rbx, %rdi
	movq	%r14, %rsi
	addq	$8, %rsp
	.cfi_def_cfa_offset 24
	popq	%rbx
.Ltmp17:
	#DEBUG_VALUE: add:instruction <- $rdi
	.cfi_def_cfa_offset 16
	popq	%r14
.Ltmp18:
	#DEBUG_VALUE: add:memory <- $rsi
	.cfi_def_cfa_offset 8
	jmpq	*%rax                           # TAILCALL
.Ltmp19:
.Lfunc_end1:
	.size	add, .Lfunc_end1-add
	.cfi_endproc
                                        # -- End function
	.globl	jmpne                           # -- Begin function jmpne
	.p2align	4, 0x90
	.type	jmpne,@function
jmpne:                                  # @jmpne
.Lfunc_begin2:
	.loc	0 41 0                          # internal_instruction.c:41:0
	.cfi_startproc
# %bb.0:
	#DEBUG_VALUE: jmpne:instruction <- $rdi
	#DEBUG_VALUE: jmpne:memory <- $rsi
	pushq	%r14
	.cfi_def_cfa_offset 16
	pushq	%rbx
	.cfi_def_cfa_offset 24
	pushq	%rax
	.cfi_def_cfa_offset 32
	.cfi_offset %rbx, -24
	.cfi_offset %r14, -16
	movq	%rsi, %r14
	movq	%rdi, %rbx
.Ltmp20:
	.loc	0 43 102 prologue_end           # internal_instruction.c:43:102
	movzbl	8(%rdi), %edx
	.loc	0 44 12                         # internal_instruction.c:44:12
	movl	(%rsi,%rdx,4), %ecx
	.loc	0 44 49 is_stmt 0               # internal_instruction.c:44:49
	movzbl	9(%rdi), %r8d
	.loc	0 44 52                         # internal_instruction.c:44:52
	movl	(%rsi,%r8,4), %r9d
	.loc	0 44 89                         # internal_instruction.c:44:89
	movq	16(%rdi), %rax
	.loc	0 43 5 is_stmt 1                # internal_instruction.c:43:5
	movq	%rax, (%rsp)
	leaq	.L.str.2(%rip), %rdi
.Ltmp21:
	#DEBUG_VALUE: jmpne:instruction <- $rbx
	movq	%rbx, %rsi
.Ltmp22:
	#DEBUG_VALUE: jmpne:memory <- $r14
                                        # kill: def $edx killed $edx killed $rdx
                                        # kill: def $r8d killed $r8d killed $r8
	xorl	%eax, %eax
	callq	printf@PLT
.Ltmp23:
	.loc	0 46 29                         # internal_instruction.c:46:29
	movzbl	8(%rbx), %eax
	.loc	0 46 9 is_stmt 0                # internal_instruction.c:46:9
	movl	(%r14,%rax,4), %eax
	.loc	0 46 55                         # internal_instruction.c:46:55
	movzbl	9(%rbx), %ecx
	.loc	0 46 32                         # internal_instruction.c:46:32
	cmpl	(%r14,%rcx,4), %eax
.Ltmp24:
	.loc	0 46 9                          # internal_instruction.c:46:9
	jne	.LBB2_1
.Ltmp25:
# %bb.2:
	#DEBUG_VALUE: jmpne:instruction <- $rbx
	#DEBUG_VALUE: jmpne:memory <- $r14
	.loc	0 52 20 is_stmt 1               # internal_instruction.c:52:20
	addq	$24, %rbx
.Ltmp26:
	#DEBUG_VALUE: jmpne:instruction <- [DW_OP_LLVM_entry_value 1] $rdi
	#DEBUG_VALUE: jmpne:instruction <- $rbx
	.loc	0 0 20 is_stmt 0                # internal_instruction.c:0:20
	jmp	.LBB2_3
.Ltmp27:
.LBB2_1:
	#DEBUG_VALUE: jmpne:instruction <- $rbx
	#DEBUG_VALUE: jmpne:memory <- $r14
	.loc	0 48 36 is_stmt 1               # internal_instruction.c:48:36
	movq	16(%rbx), %rbx
.Ltmp28:
	#DEBUG_VALUE: jmpne:instruction <- [DW_OP_LLVM_entry_value 1] $rdi
	#DEBUG_VALUE: jmpne:instruction <- $rbx
.LBB2_3:
	#DEBUG_VALUE: jmpne:instruction <- $rbx
	#DEBUG_VALUE: jmpne:memory <- $r14
	#DEBUG_VALUE: jmpne:instruction <- $rbx
	.loc	0 54 5                          # internal_instruction.c:54:5
	movq	(%rbx), %rax
	movq	%rbx, %rdi
	movq	%r14, %rsi
	addq	$8, %rsp
	.cfi_def_cfa_offset 24
	popq	%rbx
.Ltmp29:
	#DEBUG_VALUE: jmpne:instruction <- $rdi
	.cfi_def_cfa_offset 16
	popq	%r14
.Ltmp30:
	#DEBUG_VALUE: jmpne:memory <- $rsi
	.cfi_def_cfa_offset 8
	jmpq	*%rax                           # TAILCALL
.Ltmp31:
.Lfunc_end2:
	.size	jmpne, .Lfunc_end2-jmpne
	.cfi_endproc
                                        # -- End function
	.globl	print                           # -- Begin function print
	.p2align	4, 0x90
	.type	print,@function
print:                                  # @print
.Lfunc_begin3:
	.loc	0 59 0                          # internal_instruction.c:59:0
	.cfi_startproc
# %bb.0:
	#DEBUG_VALUE: print:instruction <- $rdi
	#DEBUG_VALUE: print:memory <- $rsi
	pushq	%r14
	.cfi_def_cfa_offset 16
	pushq	%rbx
	.cfi_def_cfa_offset 24
	pushq	%rax
	.cfi_def_cfa_offset 32
	.cfi_offset %rbx, -24
	.cfi_offset %r14, -16
	movq	%rsi, %r14
	movq	%rdi, %rbx
.Ltmp32:
	.loc	0 61 68 prologue_end            # internal_instruction.c:61:68
	movzbl	8(%rdi), %edx
	.loc	0 61 71 is_stmt 0               # internal_instruction.c:61:71
	movl	(%rsi,%rdx,4), %ecx
	.loc	0 61 5                          # internal_instruction.c:61:5
	leaq	.L.str.3(%rip), %rdi
.Ltmp33:
	#DEBUG_VALUE: print:instruction <- $rbx
	movq	%rbx, %rsi
.Ltmp34:
	#DEBUG_VALUE: print:memory <- $r14
                                        # kill: def $edx killed $edx killed $rdx
	xorl	%eax, %eax
	callq	printf@PLT
.Ltmp35:
	.loc	0 63 40 is_stmt 1               # internal_instruction.c:63:40
	movzbl	8(%rbx), %eax
	.loc	0 63 20 is_stmt 0               # internal_instruction.c:63:20
	movl	(%r14,%rax,4), %esi
	.loc	0 63 5                          # internal_instruction.c:63:5
	leaq	.L.str.4(%rip), %rdi
	xorl	%eax, %eax
	callq	printf@PLT
.Ltmp36:
	.loc	0 65 5 is_stmt 1                # internal_instruction.c:65:5
	movq	24(%rbx), %rax
.Ltmp37:
	.loc	0 64 16                         # internal_instruction.c:64:16
	addq	$24, %rbx
.Ltmp38:
	#DEBUG_VALUE: print:instruction <- [DW_OP_LLVM_entry_value 1] $rdi
	#DEBUG_VALUE: print:instruction <- $rbx
	.loc	0 65 5                          # internal_instruction.c:65:5
	movq	%rbx, %rdi
	movq	%r14, %rsi
	addq	$8, %rsp
	.cfi_def_cfa_offset 24
	popq	%rbx
.Ltmp39:
	#DEBUG_VALUE: print:instruction <- $rdi
	.cfi_def_cfa_offset 16
	popq	%r14
.Ltmp40:
	#DEBUG_VALUE: print:memory <- $rsi
	.cfi_def_cfa_offset 8
	jmpq	*%rax                           # TAILCALL
.Ltmp41:
.Lfunc_end3:
	.size	print, .Lfunc_end3-print
	.cfi_endproc
                                        # -- End function
	.globl	ret                             # -- Begin function ret
	.p2align	4, 0x90
	.type	ret,@function
ret:                                    # @ret
.Lfunc_begin4:
	.loc	0 70 0                          # internal_instruction.c:70:0
	.cfi_startproc
# %bb.0:
	#DEBUG_VALUE: ret:instruction <- $rdi
	#DEBUG_VALUE: ret:memory <- $rsi
	movq	%rdi, %rsi
.Ltmp42:
	#DEBUG_VALUE: ret:memory <- [DW_OP_LLVM_entry_value 1] $rsi
	.loc	0 72 5 prologue_end             # internal_instruction.c:72:5
	leaq	.L.str.5(%rip), %rdi
.Ltmp43:
	#DEBUG_VALUE: ret:instruction <- $rsi
	xorl	%eax, %eax
.Ltmp44:
	jmp	printf@PLT                      # TAILCALL
.Ltmp45:
.Lfunc_end4:
	.size	ret, .Lfunc_end4-ret
	.cfi_endproc
                                        # -- End function
	.globl	vm_loop                         # -- Begin function vm_loop
	.p2align	4, 0x90
	.type	vm_loop,@function
vm_loop:                                # @vm_loop
.Lfunc_begin5:
	.loc	0 79 0                          # internal_instruction.c:79:0
	.cfi_startproc
# %bb.0:
	#DEBUG_VALUE: vm_loop:internal_program <- $rdi
	pushq	%r14
	.cfi_def_cfa_offset 16
	pushq	%rbx
	.cfi_def_cfa_offset 24
	subq	$1032, %rsp                     # imm = 0x408
	.cfi_def_cfa_offset 1056
	.cfi_offset %rbx, -24
	.cfi_offset %r14, -16
	movq	%rdi, %rbx
	movq	%rsp, %r14
.Ltmp46:
	.loc	0 80 9 prologue_end             # internal_instruction.c:80:9
	movl	$1024, %edx                     # imm = 0x400
	movq	%r14, %rdi
.Ltmp47:
	#DEBUG_VALUE: vm_loop:internal_program <- $rbx
	xorl	%esi, %esi
	callq	memset@PLT
.Ltmp48:
	.loc	0 82 5                          # internal_instruction.c:82:5
	movq	%rbx, %rdi
	movq	%r14, %rsi
	callq	*(%rbx)
.Ltmp49:
	.loc	0 83 1                          # internal_instruction.c:83:1
	addq	$1032, %rsp                     # imm = 0x408
	.cfi_def_cfa_offset 24
	popq	%rbx
.Ltmp50:
	#DEBUG_VALUE: vm_loop:internal_program <- [DW_OP_LLVM_entry_value 1] $rdi
	.cfi_def_cfa_offset 16
	popq	%r14
	.cfi_def_cfa_offset 8
	retq
.Ltmp51:
.Lfunc_end5:
	.size	vm_loop, .Lfunc_end5-vm_loop
	.cfi_endproc
                                        # -- End function
	.type	.L.str,@object                  # @.str
	.section	.rodata.str1.1,"aMS",@progbits,1
.L.str:
	.asciz	"%x: load memory[%d] = %d\n"
	.size	.L.str, 26

	.type	.L.str.1,@object                # @.str.1
.L.str.1:
	.asciz	"%x: add memory[%d](%d) = memory[%d] + memory[%d]\n"
	.size	.L.str.1, 50

	.type	.L.str.2,@object                # @.str.2
.L.str.2:
	.asciz	"%x: jmpne if memory[%d](%d) != memory[%d](%d) then pp = %x\n"
	.size	.L.str.2, 60

	.type	.L.str.3,@object                # @.str.3
.L.str.3:
	.asciz	"%x: print memory[%d](%d)\n"
	.size	.L.str.3, 26

	.type	.L.str.4,@object                # @.str.4
.L.str.4:
	.asciz	"%d\n"
	.size	.L.str.4, 4

	.type	.L.str.5,@object                # @.str.5
.L.str.5:
	.asciz	"%x: ret\n"
	.size	.L.str.5, 9

	.file	1 "." "internal_instruction.h" md5 0xc2dfda2d882de019285914906a4665d7 source "#pragma once\n\n#pragma clang diagnostic push\n#pragma clang diagnostic ignored \"-Wvisibility\"\ntypedef struct internal_instruction\n{\n    void (*handler)(struct internal_instruction *instruction, int *memory);\n    unsigned char a;\n    unsigned char b;\n    union\n    {\n        unsigned char c;\n        struct internal_instruction *jmp;\n        int imm;\n    };\n} internal_instruction_t;\n#pragma clang diagnostic pop\n\nextern void load(internal_instruction_t *restrict instruction,\n                 int *restrict memory);\n\nextern void add(internal_instruction_t *restrict instruction,\n                int *restrict memory);\n\nextern void jmpne(internal_instruction_t *restrict instruction,\n                  int *restrict memory);\n\nextern void print(internal_instruction_t *restrict instruction,\n                  int *restrict memory);\n\nextern void ret(internal_instruction_t *restrict instruction,\n                int *restrict memory);\n\nextern void vm_loop(internal_instruction_t *internal_program);\n"
	.section	".note.GNU-stack","",@progbits
	.addrsig