	.section	__TEXT,__text,regular,pure_instructions
	.build_version macos, 14, 0
	.file	0 "/Users/kawar/GitHub/rust-instruction-dispatch/C/direct-tail-call-threading" "internal_instruction.c" md5 0xb7507d1ec52da7462015488ae670cffa source "#include <stdio.h>\n\n#include \"bytecode.h\"\n#include \"internal_instruction.h\"\n\n#define NEXT_INSTRUCTION                                                   \\\n    do                                                                     \\\n    {                                                                      \\\n        __attribute__((musttail)) return instruction->handler(instruction, \\\n                                                              memory);     \\\n    } while (0)\n\n#pragma clang diagnostic push\n#pragma clang diagnostic ignored \"-Wformat\"\n\nvoid load(internal_instruction_t *restrict instruction,\n                 int *restrict memory)\n{\n#ifdef DEBUG\n    printf(\"%x: load memory[%d] = %d\\n\", instruction, instruction->a, instruction->imm);\n#endif\n    memory[instruction->a] = instruction->imm;\n    instruction++;\n    NEXT_INSTRUCTION;\n}\n\nvoid add(internal_instruction_t *restrict instruction,\n                int *restrict memory)\n{\n#ifdef DEBUG\n    printf(\"%x: add memory[%d](%d) = memory[%d] + memory[%d]\\n\", instruction, instruction->a,\n           memory[instruction->a], instruction->b, instruction->c);\n#endif\n    memory[instruction->a] = memory[instruction->b] + memory[instruction->c];\n    instruction++;\n    NEXT_INSTRUCTION;\n}\n\nvoid jmpne(internal_instruction_t *restrict instruction,\n                  int *restrict memory)\n{\n#ifdef DEBUG\n    printf(\"%x: jmpne if memory[%d](%d) != memory[%d](%d) then pp = %x\\n\", instruction, instruction->a,\n           memory[instruction->a], instruction->b, memory[instruction->b], instruction->jmp);\n#endif\n    if (memory[instruction->a] != memory[instruction->b])\n    {\n        instruction = instruction->jmp;\n    }\n    else\n    {\n        instruction++;\n    }\n    NEXT_INSTRUCTION;\n}\n\nvoid print(internal_instruction_t *restrict instruction,\n                  int *restrict memory)\n{\n#ifdef DEBUG\n    printf(\"%x: print memory[%d](%d)\\n\", instruction, instruction->a, memory[instruction->a]);\n#endif\n    printf(\"%d\\n\", memory[instruction->a]);\n    instruction++;\n    NEXT_INSTRUCTION;\n}\n\nvoid ret(internal_instruction_t *restrict instruction,\n                int *restrict memory)\n{\n#ifdef DEBUG\n    printf(\"%x: ret\\n\", instruction);\n#endif\n}\n\n#pragma clang diagnostic pop\n\nvoid vm_loop(internal_instruction_t *internal_program)\n{\n    int memory[256] = {0};\n\n    internal_program[0].handler(internal_program, memory);\n}\n"
	.globl	_load                           ; -- Begin function load
	.p2align	2
_load:                                  ; @load
Lfunc_begin0:
	.loc	0 18 0                          ; internal_instruction.c:18:0
	.cfi_startproc
; %bb.0:
	;DEBUG_VALUE: load:instruction <- $x0
	;DEBUG_VALUE: load:memory <- $x1
	sub	sp, sp, #64
	stp	x20, x19, [sp, #32]             ; 16-byte Folded Spill
	stp	x29, x30, [sp, #48]             ; 16-byte Folded Spill
	add	x29, sp, #48
	.cfi_def_cfa w29, 16
	.cfi_offset w30, -8
	.cfi_offset w29, -16
	.cfi_offset w19, -24
	.cfi_offset w20, -32
	mov	x19, x1
Ltmp0:
	;DEBUG_VALUE: load:memory <- $x19
	mov	x20, x0
Ltmp1:
	;DEBUG_VALUE: load:instruction <- $x20
	.loc	0 20 68 prologue_end            ; internal_instruction.c:20:68
	ldrb	w8, [x0, #8]
	.loc	0 20 5 is_stmt 0                ; internal_instruction.c:20:5
	ldr	w9, [x0, #16]
	stp	x8, x9, [sp, #8]
	str	x0, [sp]
Lloh0:
	adrp	x0, l_.str@PAGE
Lloh1:
	add	x0, x0, l_.str@PAGEOFF
	bl	_printf
Ltmp2:
	.loc	0 22 43 is_stmt 1               ; internal_instruction.c:22:43
	ldr	w8, [x20, #16]
	.loc	0 22 25 is_stmt 0               ; internal_instruction.c:22:25
	ldrb	w9, [x20, #8]
	.loc	0 22 28                         ; internal_instruction.c:22:28
	str	w8, [x19, x9, lsl #2]
Ltmp3:
	.loc	0 24 5 is_stmt 1                ; internal_instruction.c:24:5
	ldr	x2, [x20, #24]!
Ltmp4:
	;DEBUG_VALUE: load:instruction <- $x20
	mov	x0, x20
	mov	x1, x19
	.loc	0 24 5 epilogue_begin is_stmt 0 ; internal_instruction.c:24:5
	ldp	x29, x30, [sp, #48]             ; 16-byte Folded Reload
	ldp	x20, x19, [sp, #32]             ; 16-byte Folded Reload
Ltmp5:
	;DEBUG_VALUE: load:memory <- [DW_OP_LLVM_entry_value 1] $x1
	add	sp, sp, #64
Ltmp6:
	br	x2
Ltmp7:
	.loh AdrpAdd	Lloh0, Lloh1
Lfunc_end0:
	.cfi_endproc
	.file	1 "/Library/Developer/CommandLineTools/SDKs/MacOSX14.sdk/usr/include" "stdio.h" md5 0x463ca938d40f3912493d758c8faacee2 source "/*\n * Copyright (c) 2000, 2005, 2007, 2009, 2010 Apple Inc. All rights reserved.\n *\n * @APPLE_LICENSE_HEADER_START@\n *\n * This file contains Original Code and/or Modifications of Original Code\n * as defined in and that are subject to the Apple Public Source License\n * Version 2.0 (the 'License'). You may not use this file except in\n * compliance with the License. Please obtain a copy of the License at\n * http://www.opensource.apple.com/apsl/ and read it before using this\n * file.\n *\n * The Original Code and all software distributed under the License are\n * distributed on an 'AS IS' basis, WITHOUT WARRANTY OF ANY KIND, EITHER\n * EXPRESS OR IMPLIED, AND APPLE HEREBY DISCLAIMS ALL SUCH WARRANTIES,\n * INCLUDING WITHOUT LIMITATION, ANY WARRANTIES OF MERCHANTABILITY,\n * FITNESS FOR A PARTICULAR PURPOSE, QUIET ENJOYMENT OR NON-INFRINGEMENT.\n * Please see the License for the specific language governing rights and\n * limitations under the License.\n *\n * @APPLE_LICENSE_HEADER_END@\n */\n/*-\n * Copyright (c) 1990, 1993\n *\tThe Regents of the University of California.  All rights reserved.\n *\n * This code is derived from software contributed to Berkeley by\n * Chris Torek.\n *\n * Redistribution and use in source and binary forms, with or without\n * modification, are permitted provided that the following conditions\n * are met:\n * 1. Redistributions of source code must retain the above copyright\n *    notice, this list of conditions and the following disclaimer.\n * 2. Redistributions in binary form must reproduce the above copyright\n *    notice, this list of conditions and the following disclaimer in the\n *    documentation and/or other materials provided with the distribution.\n * 3. All advertising materials mentioning features or use of this software\n *    must display the following acknowledgement:\n *\tThis product includes software developed by the University of\n *\tCalifornia, Berkeley and its contributors.\n * 4. Neither the name of the University nor the names of its contributors\n *    may be used to endorse or promote products derived from this software\n *    without specific prior written permission.\n *\n * THIS SOFTWARE IS PROVIDED BY THE REGENTS AND CONTRIBUTORS ``AS IS'' AND\n * ANY EXPRESS OR IMPLIED WARRANTIES, INCLUDING, BUT NOT LIMITED TO, THE\n * IMPLIED WARRANTIES OF MERCHANTABILITY AND FITNESS FOR A PARTICULAR PURPOSE\n * ARE DISCLAIMED.  IN NO EVENT SHALL THE REGENTS OR CONTRIBUTORS BE LIABLE\n * FOR ANY DIRECT, INDIRECT, INCIDENTAL, SPECIAL, EXEMPLARY, OR CONSEQUENTIAL\n * DAMAGES (INCLUDING, BUT NOT LIMITED TO, PROCUREMENT OF SUBSTITUTE GOODS\n * OR SERVICES; LOSS OF USE, DATA, OR PROFITS; OR BUSINESS INTERRUPTION)\n * HOWEVER CAUSED AND ON ANY THEORY OF LIABILITY, WHETHER IN CONTRACT, STRICT\n * LIABILITY, OR TORT (INCLUDING NEGLIGENCE OR OTHERWISE) ARISING IN ANY WAY\n * OUT OF THE USE OF THIS SOFTWARE, EVEN IF ADVISED OF THE POSSIBILITY OF\n * SUCH DAMAGE.\n *\n *\t@(#)stdio.h\t8.5 (Berkeley) 4/29/95\n */\n\n#ifndef\t_STDIO_H_\n#define\t_STDIO_H_\n\n#include <_stdio.h>\n\n#include <sys/_types/_seek_set.h>\n\n__BEGIN_DECLS\nextern FILE *__stdinp;\nextern FILE *__stdoutp;\nextern FILE *__stderrp;\n__END_DECLS\n\n#define\t__SLBF\t0x0001\t\t/* line buffered */\n#define\t__SNBF\t0x0002\t\t/* unbuffered */\n#define\t__SRD\t0x0004\t\t/* OK to read */\n#define\t__SWR\t0x0008\t\t/* OK to write */\n\t/* RD and WR are never simultaneously asserted */\n#define\t__SRW\t0x0010\t\t/* open for reading & writing */\n#define\t__SEOF\t0x0020\t\t/* found EOF */\n#define\t__SERR\t0x0040\t\t/* found error */\n#define\t__SMBF\t0x0080\t\t/* _buf is from malloc */\n#define\t__SAPP\t0x0100\t\t/* fdopen()ed in append mode */\n#define\t__SSTR\t0x0200\t\t/* this is an sprintf/snprintf string */\n#define\t__SOPT\t0x0400\t\t/* do fseek() optimisation */\n#define\t__SNPT\t0x0800\t\t/* do not do fseek() optimisation */\n#define\t__SOFF\t0x1000\t\t/* set iff _offset is in fact correct */\n#define\t__SMOD\t0x2000\t\t/* true => fgetln modified _p text */\n#define __SALC  0x4000\t\t/* allocate string space dynamically */\n#define __SIGN  0x8000\t\t/* ignore this file in _fwalk */\n\n/*\n * The following three definitions are for ANSI C, which took them\n * from System V, which brilliantly took internal interface macros and\n * made them official arguments to setvbuf(), without renaming them.\n * Hence, these ugly _IOxxx names are *supposed* to appear in user code.\n *\n * Although numbered as their counterparts above, the implementation\n * does not rely on this.\n */\n#define\t_IOFBF\t0\t\t/* setvbuf should set fully buffered */\n#define\t_IOLBF\t1\t\t/* setvbuf should set line buffered */\n#define\t_IONBF\t2\t\t/* setvbuf should set unbuffered */\n\n#define\tBUFSIZ\t1024\t\t/* size of buffer used by setbuf */\n#define\tEOF\t(-1)\n\n\t\t\t\t/* must be == _POSIX_STREAM_MAX <limits.h> */\n#define\tFOPEN_MAX\t20\t/* must be <= OPEN_MAX <sys/syslimits.h> */\n#define\tFILENAME_MAX\t1024\t/* must be <= PATH_MAX <sys/syslimits.h> */\n\n/* System V/ANSI C; this is the wrong way to do this, do *not* use these. */\n#ifndef _ANSI_SOURCE\n#define\tP_tmpdir\t\"/var/tmp/\"\n#endif\n#define\tL_tmpnam\t1024\t/* XXX must be == PATH_MAX */\n#define\tTMP_MAX\t\t308915776\n\n#define\tstdin\t__stdinp\n#define\tstdout\t__stdoutp\n#define\tstderr\t__stderrp\n\n#ifdef _DARWIN_UNLIMITED_STREAMS\n#if defined(__IPHONE_OS_VERSION_MIN_REQUIRED) && __IPHONE_OS_VERSION_MIN_REQUIRED < __IPHONE_3_2\n#error \"_DARWIN_UNLIMITED_STREAMS specified, but -miphoneos-version-min version does not support it.\"\n#elif defined(__MAC_OS_X_VERSION_MIN_REQUIRED) && __MAC_OS_X_VERSION_MIN_REQUIRED < __MAC_10_6\n#error \"_DARWIN_UNLIMITED_STREAMS specified, but -mmacosx-version-min version does not support it.\"\n#endif\n#endif\n\n/* ANSI-C */\n\n__BEGIN_DECLS\nvoid\t clearerr(FILE *);\nint\t fclose(FILE *);\nint\t feof(FILE *);\nint\t ferror(FILE *);\nint\t fflush(FILE *);\nint\t fgetc(FILE *);\nint\t fgetpos(FILE * __restrict, fpos_t *);\nchar\t*fgets(char * __restrict, int, FILE *);\n#if defined(_DARWIN_UNLIMITED_STREAMS) || defined(_DARWIN_C_SOURCE)\nFILE\t*fopen(const char * __restrict __filename, const char * __restrict __mode) __DARWIN_ALIAS_STARTING(__MAC_10_6, __IPHONE_3_2, __DARWIN_EXTSN(fopen));\n#else /* !_DARWIN_UNLIMITED_STREAMS && !_DARWIN_C_SOURCE */\nFILE\t*fopen(const char * __restrict __filename, const char * __restrict __mode) __DARWIN_ALIAS_STARTING(__MAC_10_6, __IPHONE_2_0, __DARWIN_ALIAS(fopen));\n#endif /* (DARWIN_UNLIMITED_STREAMS || _DARWIN_C_SOURCE) */\nint\t fprintf(FILE * __restrict, const char * __restrict, ...) __printflike(2, 3);\nint\t fputc(int, FILE *);\nint\t fputs(const char * __restrict, FILE * __restrict) __DARWIN_ALIAS(fputs);\nsize_t\t fread(void * __restrict __ptr, size_t __size, size_t __nitems, FILE * __restrict __stream);\nFILE\t*freopen(const char * __restrict, const char * __restrict,\n                 FILE * __restrict) __DARWIN_ALIAS(freopen);\nint\t fscanf(FILE * __restrict, const char * __restrict, ...) __scanflike(2, 3);\nint\t fseek(FILE *, long, int);\nint\t fsetpos(FILE *, const fpos_t *);\nlong\t ftell(FILE *);\nsize_t\t fwrite(const void * __restrict __ptr, size_t __size, size_t __nitems, FILE * __restrict __stream) __DARWIN_ALIAS(fwrite);\nint\t getc(FILE *);\nint\t getchar(void);\n\n#if !defined(_POSIX_C_SOURCE)\n__deprecated_msg(\"This function is provided for compatibility reasons only.  Due to security concerns inherent in the design of gets(3), it is highly recommended that you use fgets(3) instead.\")\n#endif\nchar\t*gets(char *);\n\nvoid\t perror(const char *) __cold;\nint\t printf(const char * __restrict, ...) __printflike(1, 2);\nint\t putc(int, FILE *);\nint\t putchar(int);\nint\t puts(const char *);\nint\t remove(const char *);\nint\t rename (const char *__old, const char *__new);\nvoid\t rewind(FILE *);\nint\t scanf(const char * __restrict, ...) __scanflike(1, 2);\nvoid\t setbuf(FILE * __restrict, char * __restrict);\nint\t setvbuf(FILE * __restrict, char * __restrict, int, size_t);\n\n__swift_unavailable(\"Use snprintf instead.\")\n#if !defined(_POSIX_C_SOURCE)\n__deprecated_msg(\"This function is provided for compatibility reasons only.  Due to security concerns inherent in the design of sprintf(3), it is highly recommended that you use snprintf(3) instead.\")\n#endif\nint\t sprintf(char * __restrict, const char * __restrict, ...) __printflike(2, 3);\n\nint\t sscanf(const char * __restrict, const char * __restrict, ...) __scanflike(2, 3);\nFILE\t*tmpfile(void);\n\n__swift_unavailable(\"Use mkstemp(3) instead.\")\n#if !defined(_POSIX_C_SOURCE)\n__deprecated_msg(\"This function is provided for compatibility reasons only.  Due to security concerns inherent in the design of tmpnam(3), it is highly recommended that you use mkstemp(3) instead.\")\n#endif\nchar\t*tmpnam(char *);\n\nint\t ungetc(int, FILE *);\nint\t vfprintf(FILE * __restrict, const char * __restrict, va_list) __printflike(2, 0);\nint\t vprintf(const char * __restrict, va_list) __printflike(1, 0);\n\n__swift_unavailable(\"Use vsnprintf instead.\")\n#if !defined(_POSIX_C_SOURCE)\n__deprecated_msg(\"This function is provided for compatibility reasons only.  Due to security concerns inherent in the design of sprintf(3), it is highly recommended that you use vsnprintf(3) instead.\")\n#endif\nint\t vsprintf(char * __restrict, const char * __restrict, va_list) __printflike(2, 0);\n__END_DECLS\n\n\n\n/* Additional functionality provided by:\n * POSIX.1-1988\n */\n\n#if __DARWIN_C_LEVEL >= 198808L\n#define\tL_ctermid\t1024\t/* size for ctermid(); PATH_MAX */\n\n#include <_ctermid.h>\n\n__BEGIN_DECLS\n\n#if defined(_DARWIN_UNLIMITED_STREAMS) || defined(_DARWIN_C_SOURCE)\nFILE\t*fdopen(int, const char *) __DARWIN_ALIAS_STARTING(__MAC_10_6, __IPHONE_3_2, __DARWIN_EXTSN(fdopen));\n#else /* !_DARWIN_UNLIMITED_STREAMS && !_DARWIN_C_SOURCE */\nFILE\t*fdopen(int, const char *) __DARWIN_ALIAS_STARTING(__MAC_10_6, __IPHONE_2_0, __DARWIN_ALIAS(fdopen));\n#endif /* (DARWIN_UNLIMITED_STREAMS || _DARWIN_C_SOURCE) */\nint\t fileno(FILE *);\n__END_DECLS\n#endif /* __DARWIN_C_LEVEL >= 198808L */\n\n\n/* Additional functionality provided by:\n * POSIX.2-1992 C Language Binding Option\n */\n\n#if __DARWIN_C_LEVEL >= 199209L\n__BEGIN_DECLS\nint\t pclose(FILE *) __swift_unavailable(\"Use posix_spawn APIs or NSTask instead. (On iOS, process spawning is unavailable.)\");\n#if defined(_DARWIN_UNLIMITED_STREAMS) || defined(_DARWIN_C_SOURCE)\nFILE\t*popen(const char *, const char *) __DARWIN_ALIAS_STARTING(__MAC_10_6, __IPHONE_3_2, __DARWIN_EXTSN(popen)) __swift_unavailable(\"Use posix_spawn APIs or NSTask instead. (On iOS, process spawning is unavailable.)\");\n#else /* !_DARWIN_UNLIMITED_STREAMS && !_DARWIN_C_SOURCE */\nFILE\t*popen(const char *, const char *) __DARWIN_ALIAS_STARTING(__MAC_10_6, __IPHONE_2_0, __DARWIN_ALIAS(popen)) __swift_unavailable(\"Use posix_spawn APIs or NSTask instead. (On iOS, process spawning is unavailable.)\");\n#endif /* (DARWIN_UNLIMITED_STREAMS || _DARWIN_C_SOURCE) */\n__END_DECLS\n#endif /* __DARWIN_C_LEVEL >= 199209L */\n\n/* Additional functionality provided by:\n * POSIX.1c-1995,\n * POSIX.1i-1995,\n * and the omnibus ISO/IEC 9945-1: 1996\n */\n\n#if __DARWIN_C_LEVEL >= 199506L\n\n/* Functions internal to the implementation. */\n__BEGIN_DECLS\nint\t__srget(FILE *);\nint\t__svfscanf(FILE *, const char *, va_list) __scanflike(2, 0);\nint\t__swbuf(int, FILE *);\n__END_DECLS\n\n/*\n * The __sfoo macros are here so that we can\n * define function versions in the C library.\n */\n#define\t__sgetc(p) (--(p)->_r < 0 ? __srget(p) : (int)(*(p)->_p++))\n#if defined(__GNUC__) && defined(__STDC__)\n__header_always_inline int __sputc(int _c, FILE *_p) {\n\tif (--_p->_w >= 0 || (_p->_w >= _p->_lbfsize && (char)_c != '\\n'))\n\t\treturn (*_p->_p++ = _c);\n\telse\n\t\treturn (__swbuf(_c, _p));\n}\n#else\n/*\n * This has been tuned to generate reasonable code on the vax using pcc.\n */\n#define\t__sputc(c, p) \\\n\t(--(p)->_w < 0 ? \\\n\t\t(p)->_w >= (p)->_lbfsize ? \\\n\t\t\t(*(p)->_p = (c)), *(p)->_p != '\\n' ? \\\n\t\t\t\t(int)*(p)->_p++ : \\\n\t\t\t\t__swbuf('\\n', p) : \\\n\t\t\t__swbuf((int)(c), p) : \\\n\t\t(*(p)->_p = (c), (int)*(p)->_p++))\n#endif\n\n#define\t__sfeof(p)\t(((p)->_flags & __SEOF) != 0)\n#define\t__sferror(p)\t(((p)->_flags & __SERR) != 0)\n#define\t__sclearerr(p)\t((void)((p)->_flags &= ~(__SERR|__SEOF)))\n#define\t__sfileno(p)\t((p)->_file)\n\n__BEGIN_DECLS\nvoid\t flockfile(FILE *);\nint\t ftrylockfile(FILE *);\nvoid\t funlockfile(FILE *);\nint\t getc_unlocked(FILE *);\nint\t getchar_unlocked(void);\nint\t putc_unlocked(int, FILE *);\nint\t putchar_unlocked(int);\n\n/* Removed in Issue 6 */\n#if !defined(_POSIX_C_SOURCE) || _POSIX_C_SOURCE < 200112L\nint\t getw(FILE *);\nint\t putw(int, FILE *);\n#endif\n\n__swift_unavailable(\"Use mkstemp(3) instead.\")\n#if !defined(_POSIX_C_SOURCE)\n__deprecated_msg(\"This function is provided for compatibility reasons only.  Due to security concerns inherent in the design of tempnam(3), it is highly recommended that you use mkstemp(3) instead.\")\n#endif\nchar\t*tempnam(const char *__dir, const char *__prefix) __DARWIN_ALIAS(tempnam);\n__END_DECLS\n\n#ifndef lint\n#define\tgetc_unlocked(fp)\t__sgetc(fp)\n#define putc_unlocked(x, fp)\t__sputc(x, fp)\n#endif /* lint */\n\n#define\tgetchar_unlocked()\tgetc_unlocked(stdin)\n#define\tputchar_unlocked(x)\tputc_unlocked(x, stdout)\n#endif /* __DARWIN_C_LEVEL >= 199506L */\n\n\n\n/* Additional functionality provided by:\n * POSIX.1-2001\n * ISO C99\n */\n\n#if __DARWIN_C_LEVEL >= 200112L\n#include <sys/_types/_off_t.h>\n\n__BEGIN_DECLS\nint\t fseeko(FILE * __stream, off_t __offset, int __whence);\noff_t\t ftello(FILE * __stream);\n__END_DECLS\n#endif /* __DARWIN_C_LEVEL >= 200112L */\n\n#if __DARWIN_C_LEVEL >= 200112L || defined(_C99_SOURCE) || defined(__cplusplus)\n__BEGIN_DECLS\nint\t snprintf(char * __restrict __str, size_t __size, const char * __restrict __format, ...) __printflike(3, 4);\nint\t vfscanf(FILE * __restrict __stream, const char * __restrict __format, va_list) __scanflike(2, 0);\nint\t vscanf(const char * __restrict __format, va_list) __scanflike(1, 0);\nint\t vsnprintf(char * __restrict __str, size_t __size, const char * __restrict __format, va_list) __printflike(3, 0);\nint\t vsscanf(const char * __restrict __str, const char * __restrict __format, va_list) __scanflike(2, 0);\n__END_DECLS\n#endif /* __DARWIN_C_LEVEL >= 200112L || defined(_C99_SOURCE) || defined(__cplusplus) */\n\n\n\n/* Additional functionality provided by:\n * POSIX.1-2008\n */\n\n#if __DARWIN_C_LEVEL >= 200809L\n#include <sys/_types/_ssize_t.h>\n\n__BEGIN_DECLS\nint\tdprintf(int, const char * __restrict, ...) __printflike(2, 3) __OSX_AVAILABLE_STARTING(__MAC_10_7, __IPHONE_4_3);\nint\tvdprintf(int, const char * __restrict, va_list) __printflike(2, 0) __OSX_AVAILABLE_STARTING(__MAC_10_7, __IPHONE_4_3);\nssize_t getdelim(char ** __restrict __linep, size_t * __restrict __linecapp, int __delimiter, FILE * __restrict __stream) __OSX_AVAILABLE_STARTING(__MAC_10_7, __IPHONE_4_3);\nssize_t getline(char ** __restrict __linep, size_t * __restrict __linecapp, FILE * __restrict __stream) __OSX_AVAILABLE_STARTING(__MAC_10_7, __IPHONE_4_3);\nFILE *fmemopen(void * __restrict __buf, size_t __size, const char * __restrict __mode) __API_AVAILABLE(macos(10.13), ios(11.0), tvos(11.0), watchos(4.0));\nFILE *open_memstream(char **__bufp, size_t *__sizep) __API_AVAILABLE(macos(10.13), ios(11.0), tvos(11.0), watchos(4.0));\n__END_DECLS\n#endif /* __DARWIN_C_LEVEL >= 200809L */\n\n\n\n/* Darwin extensions */\n\n#if __DARWIN_C_LEVEL >= __DARWIN_C_FULL\n__BEGIN_DECLS\nextern __const int sys_nerr;\t\t/* perror(3) external variables */\nextern __const char *__const sys_errlist[];\n\nint\t asprintf(char ** __restrict, const char * __restrict, ...) __printflike(2, 3);\nchar\t*ctermid_r(char *);\nchar\t*fgetln(FILE *, size_t *);\n__const char *fmtcheck(const char *, const char *) __attribute__((format_arg(2)));\nint\t fpurge(FILE *);\nvoid\t setbuffer(FILE *, char *, int);\nint\t setlinebuf(FILE *);\nint\t vasprintf(char ** __restrict, const char * __restrict, va_list) __printflike(2, 0);\n\n\n/*\n * Stdio function-access interface.\n */\nFILE\t*funopen(const void *,\n                 int (* _Nullable)(void *, char *, int),\n                 int (* _Nullable)(void *, const char *, int),\n                 fpos_t (* _Nullable)(void *, fpos_t, int),\n                 int (* _Nullable)(void *));\n__END_DECLS\n#define\tfropen(cookie, fn) funopen(cookie, fn, 0, 0, 0)\n#define\tfwopen(cookie, fn) funopen(cookie, 0, fn, 0, 0)\n\n#define\tfeof_unlocked(p)\t__sfeof(p)\n#define\tferror_unlocked(p)\t__sferror(p)\n#define\tclearerr_unlocked(p)\t__sclearerr(p)\n#define\tfileno_unlocked(p)\t__sfileno(p)\n\n#endif /* __DARWIN_C_LEVEL >= __DARWIN_C_FULL */\n\n\n#ifdef _USE_EXTENDED_LOCALES_\n#include <xlocale/_stdio.h>\n#endif /* _USE_EXTENDED_LOCALES_ */\n\n#if defined (__GNUC__) && _FORTIFY_SOURCE > 0 && !defined (__cplusplus)\n/* Security checking functions.  */\n#include <secure/_stdio.h>\n#endif\n\n#endif /* _STDIO_H_ */\n"
                                        ; -- End function
	.globl	_add                            ; -- Begin function add
	.p2align	2
_add:                                   ; @add
Lfunc_begin1:
	.loc	0 29 0 is_stmt 1                ; internal_instruction.c:29:0
	.cfi_startproc
; %bb.0:
	;DEBUG_VALUE: add:instruction <- $x0
	;DEBUG_VALUE: add:memory <- $x1
	sub	sp, sp, #80
	stp	x20, x19, [sp, #48]             ; 16-byte Folded Spill
	stp	x29, x30, [sp, #64]             ; 16-byte Folded Spill
	add	x29, sp, #64
	.cfi_def_cfa w29, 16
	.cfi_offset w30, -8
	.cfi_offset w29, -16
	.cfi_offset w19, -24
	.cfi_offset w20, -32
	mov	x19, x1
Ltmp8:
	;DEBUG_VALUE: add:memory <- $x19
	mov	x20, x0
Ltmp9:
	;DEBUG_VALUE: add:instruction <- $x20
	.loc	0 31 92 prologue_end            ; internal_instruction.c:31:92
	ldrb	w8, [x0, #8]
	.loc	0 32 49                         ; internal_instruction.c:32:49
	ldrb	w9, [x0, #9]
	.loc	0 32 65 is_stmt 0               ; internal_instruction.c:32:65
	ldrb	w10, [x0, #16]
	.loc	0 31 5 is_stmt 1                ; internal_instruction.c:31:5
	ldr	w11, [x1, x8, lsl #2]
	stp	x9, x10, [sp, #24]
	stp	x8, x11, [sp, #8]
	str	x0, [sp]
Lloh2:
	adrp	x0, l_.str.1@PAGE
Lloh3:
	add	x0, x0, l_.str.1@PAGEOFF
	bl	_printf
Ltmp10:
	.loc	0 34 50                         ; internal_instruction.c:34:50
	ldrb	w8, [x20, #9]
	.loc	0 34 30 is_stmt 0               ; internal_instruction.c:34:30
	ldr	w8, [x19, x8, lsl #2]
	.loc	0 34 75                         ; internal_instruction.c:34:75
	ldrb	w9, [x20, #16]
	.loc	0 34 55                         ; internal_instruction.c:34:55
	ldr	w9, [x19, x9, lsl #2]
	.loc	0 34 53                         ; internal_instruction.c:34:53
	add	w8, w9, w8
	.loc	0 34 25                         ; internal_instruction.c:34:25
	ldrb	w9, [x20, #8]
	.loc	0 34 28                         ; internal_instruction.c:34:28
	str	w8, [x19, x9, lsl #2]
Ltmp11:
	.loc	0 36 5 is_stmt 1                ; internal_instruction.c:36:5
	ldr	x2, [x20, #24]!
Ltmp12:
	;DEBUG_VALUE: add:instruction <- $x20
	mov	x0, x20
	mov	x1, x19
	.loc	0 36 5 epilogue_begin is_stmt 0 ; internal_instruction.c:36:5
	ldp	x29, x30, [sp, #64]             ; 16-byte Folded Reload
	ldp	x20, x19, [sp, #48]             ; 16-byte Folded Reload
Ltmp13:
	;DEBUG_VALUE: add:memory <- [DW_OP_LLVM_entry_value 1] $x1
	add	sp, sp, #80
Ltmp14:
	br	x2
Ltmp15:
	.loh AdrpAdd	Lloh2, Lloh3
Lfunc_end1:
	.cfi_endproc
                                        ; -- End function
	.globl	_jmpne                          ; -- Begin function jmpne
	.p2align	2
_jmpne:                                 ; @jmpne
Lfunc_begin2:
	.loc	0 41 0 is_stmt 1                ; internal_instruction.c:41:0
	.cfi_startproc
; %bb.0:
	;DEBUG_VALUE: jmpne:instruction <- $x0
	;DEBUG_VALUE: jmpne:memory <- $x1
	sub	sp, sp, #80
	stp	x20, x19, [sp, #48]             ; 16-byte Folded Spill
	stp	x29, x30, [sp, #64]             ; 16-byte Folded Spill
	add	x29, sp, #64
	.cfi_def_cfa w29, 16
	.cfi_offset w30, -8
	.cfi_offset w29, -16
	.cfi_offset w19, -24
	.cfi_offset w20, -32
	mov	x19, x1
Ltmp16:
	;DEBUG_VALUE: jmpne:memory <- $x19
	mov	x20, x0
Ltmp17:
	;DEBUG_VALUE: jmpne:instruction <- $x20
	.loc	0 43 102 prologue_end           ; internal_instruction.c:43:102
	ldrb	w8, [x0, #8]
	.loc	0 44 49                         ; internal_instruction.c:44:49
	ldrb	w9, [x0, #9]
	.loc	0 44 89 is_stmt 0               ; internal_instruction.c:44:89
	ldr	x10, [x0, #16]
	.loc	0 43 5 is_stmt 1                ; internal_instruction.c:43:5
	ldr	w11, [x1, x8, lsl #2]
	ldr	w12, [x1, x9, lsl #2]
	stp	x12, x10, [sp, #32]
	stp	x11, x9, [sp, #16]
	stp	x0, x8, [sp]
Lloh4:
	adrp	x0, l_.str.2@PAGE
Lloh5:
	add	x0, x0, l_.str.2@PAGEOFF
	bl	_printf
Ltmp18:
	.loc	0 46 29                         ; internal_instruction.c:46:29
	ldrb	w8, [x20, #8]
	.loc	0 46 9 is_stmt 0                ; internal_instruction.c:46:9
	ldr	w8, [x19, x8, lsl #2]
	.loc	0 46 55                         ; internal_instruction.c:46:55
	ldrb	w9, [x20, #9]
	.loc	0 46 35                         ; internal_instruction.c:46:35
	ldr	w9, [x19, x9, lsl #2]
Ltmp19:
	.loc	0 46 9                          ; internal_instruction.c:46:9
	cmp	w8, w9
	b.ne	LBB2_2
Ltmp20:
; %bb.1:
	;DEBUG_VALUE: jmpne:instruction <- $x20
	;DEBUG_VALUE: jmpne:memory <- $x19
	.loc	0 52 20 is_stmt 1               ; internal_instruction.c:52:20
	add	x0, x20, #24
Ltmp21:
	;DEBUG_VALUE: jmpne:instruction <- $x0
	;DEBUG_VALUE: jmpne:instruction <- $x0
	.loc	0 54 5                          ; internal_instruction.c:54:5
	ldr	x2, [x0]
	mov	x1, x19
	.loc	0 54 5 epilogue_begin is_stmt 0 ; internal_instruction.c:54:5
	ldp	x29, x30, [sp, #64]             ; 16-byte Folded Reload
	ldp	x20, x19, [sp, #48]             ; 16-byte Folded Reload
Ltmp22:
	;DEBUG_VALUE: jmpne:memory <- [DW_OP_LLVM_entry_value 1] $x1
	add	sp, sp, #80
Ltmp23:
	br	x2
Ltmp24:
LBB2_2:
	;DEBUG_VALUE: jmpne:instruction <- $x20
	;DEBUG_VALUE: jmpne:memory <- $x19
	.loc	0 48 36 is_stmt 1               ; internal_instruction.c:48:36
	ldr	x0, [x20, #16]
Ltmp25:
	;DEBUG_VALUE: jmpne:instruction <- $x0
	;DEBUG_VALUE: jmpne:instruction <- $x0
	.loc	0 54 5                          ; internal_instruction.c:54:5
	ldr	x2, [x0]
	mov	x1, x19
	.loc	0 54 5 epilogue_begin is_stmt 0 ; internal_instruction.c:54:5
	ldp	x29, x30, [sp, #64]             ; 16-byte Folded Reload
	ldp	x20, x19, [sp, #48]             ; 16-byte Folded Reload
Ltmp26:
	;DEBUG_VALUE: jmpne:memory <- [DW_OP_LLVM_entry_value 1] $x1
	add	sp, sp, #80
Ltmp27:
	br	x2
Ltmp28:
	.loh AdrpAdd	Lloh4, Lloh5
Lfunc_end2:
	.cfi_endproc
                                        ; -- End function
	.globl	_print                          ; -- Begin function print
	.p2align	2
_print:                                 ; @print
Lfunc_begin3:
	.loc	0 59 0 is_stmt 1                ; internal_instruction.c:59:0
	.cfi_startproc
; %bb.0:
	;DEBUG_VALUE: print:instruction <- $x0
	;DEBUG_VALUE: print:memory <- $x1
	sub	sp, sp, #64
	stp	x20, x19, [sp, #32]             ; 16-byte Folded Spill
	stp	x29, x30, [sp, #48]             ; 16-byte Folded Spill
	add	x29, sp, #48
	.cfi_def_cfa w29, 16
	.cfi_offset w30, -8
	.cfi_offset w29, -16
	.cfi_offset w19, -24
	.cfi_offset w20, -32
	mov	x19, x1
Ltmp29:
	;DEBUG_VALUE: print:memory <- $x19
	mov	x20, x0
Ltmp30:
	;DEBUG_VALUE: print:instruction <- $x20
	.loc	0 61 68 prologue_end            ; internal_instruction.c:61:68
	ldrb	w8, [x0, #8]
	.loc	0 61 5 is_stmt 0                ; internal_instruction.c:61:5
	ldr	w9, [x1, x8, lsl #2]
	stp	x8, x9, [sp, #8]
	str	x0, [sp]
Lloh6:
	adrp	x0, l_.str.3@PAGE
Lloh7:
	add	x0, x0, l_.str.3@PAGEOFF
	bl	_printf
Ltmp31:
	.loc	0 63 40 is_stmt 1               ; internal_instruction.c:63:40
	ldrb	w8, [x20, #8]
	.loc	0 63 5 is_stmt 0                ; internal_instruction.c:63:5
	ldr	w8, [x19, x8, lsl #2]
	str	x8, [sp]
Lloh8:
	adrp	x0, l_.str.4@PAGE
Lloh9:
	add	x0, x0, l_.str.4@PAGEOFF
	bl	_printf
Ltmp32:
	.loc	0 65 5 is_stmt 1                ; internal_instruction.c:65:5
	ldr	x2, [x20, #24]!
Ltmp33:
	;DEBUG_VALUE: print:instruction <- $x20
	mov	x0, x20
	mov	x1, x19
	.loc	0 65 5 epilogue_begin is_stmt 0 ; internal_instruction.c:65:5
	ldp	x29, x30, [sp, #48]             ; 16-byte Folded Reload
	ldp	x20, x19, [sp, #32]             ; 16-byte Folded Reload
Ltmp34:
	;DEBUG_VALUE: print:memory <- [DW_OP_LLVM_entry_value 1] $x1
	add	sp, sp, #64
Ltmp35:
	br	x2
Ltmp36:
	.loh AdrpAdd	Lloh8, Lloh9
	.loh AdrpAdd	Lloh6, Lloh7
Lfunc_end3:
	.cfi_endproc
                                        ; -- End function
	.globl	_ret                            ; -- Begin function ret
	.p2align	2
_ret:                                   ; @ret
Lfunc_begin4:
	.loc	0 70 0 is_stmt 1                ; internal_instruction.c:70:0
	.cfi_startproc
; %bb.0:
	;DEBUG_VALUE: ret:instruction <- $x0
	;DEBUG_VALUE: ret:memory <- $x1
	sub	sp, sp, #32
	stp	x29, x30, [sp, #16]             ; 16-byte Folded Spill
	add	x29, sp, #16
	.cfi_def_cfa w29, 16
	.cfi_offset w30, -8
	.cfi_offset w29, -16
Ltmp37:
	.loc	0 72 5 prologue_end             ; internal_instruction.c:72:5
	str	x0, [sp]
Lloh10:
	adrp	x0, l_.str.5@PAGE
Ltmp38:
	;DEBUG_VALUE: ret:instruction <- [DW_OP_LLVM_entry_value 1] $x0
Lloh11:
	add	x0, x0, l_.str.5@PAGEOFF
	bl	_printf
Ltmp39:
	;DEBUG_VALUE: ret:memory <- [DW_OP_LLVM_entry_value 1] $x1
	.loc	0 74 1 epilogue_begin           ; internal_instruction.c:74:1
	ldp	x29, x30, [sp, #16]             ; 16-byte Folded Reload
	add	sp, sp, #32
	ret
Ltmp40:
	.loh AdrpAdd	Lloh10, Lloh11
Lfunc_end4:
	.cfi_endproc
                                        ; -- End function
	.globl	_vm_loop                        ; -- Begin function vm_loop
	.p2align	2
_vm_loop:                               ; @vm_loop
Lfunc_begin5:
	.loc	0 79 0                          ; internal_instruction.c:79:0
	.cfi_startproc
; %bb.0:
	;DEBUG_VALUE: vm_loop:internal_program <- $x0
	stp	x20, x19, [sp, #-32]!           ; 16-byte Folded Spill
	stp	x29, x30, [sp, #16]             ; 16-byte Folded Spill
	add	x29, sp, #16
	sub	sp, sp, #1040
	.cfi_def_cfa w29, 16
	.cfi_offset w30, -8
	.cfi_offset w29, -16
	.cfi_offset w19, -24
	.cfi_offset w20, -32
	mov	x19, x0
Ltmp41:
	;DEBUG_VALUE: vm_loop:internal_program <- $x19
Lloh12:
	adrp	x8, ___stack_chk_guard@GOTPAGE
Lloh13:
	ldr	x8, [x8, ___stack_chk_guard@GOTPAGEOFF]
Lloh14:
	ldr	x8, [x8]
	stur	x8, [x29, #-24]
Ltmp42:
	.loc	0 80 9 prologue_end             ; internal_instruction.c:80:9
	add	x0, sp, #8
	mov	w1, #1024                       ; =0x400
	bl	_bzero
Ltmp43:
	.loc	0 82 25                         ; internal_instruction.c:82:25
	ldr	x8, [x19]
	.loc	0 82 5 is_stmt 0                ; internal_instruction.c:82:5
	add	x1, sp, #8
	mov	x0, x19
	blr	x8
Ltmp44:
	.loc	0 0 5                           ; internal_instruction.c:0:5
	ldur	x8, [x29, #-24]
Lloh15:
	adrp	x9, ___stack_chk_guard@GOTPAGE
Lloh16:
	ldr	x9, [x9, ___stack_chk_guard@GOTPAGEOFF]
Lloh17:
	ldr	x9, [x9]
	cmp	x9, x8
	b.ne	LBB5_2
Ltmp45:
; %bb.1:
	;DEBUG_VALUE: vm_loop:internal_program <- $x19
	.loc	0 83 1 epilogue_begin is_stmt 1 ; internal_instruction.c:83:1
	add	sp, sp, #1040
	ldp	x29, x30, [sp, #16]             ; 16-byte Folded Reload
	ldp	x20, x19, [sp], #32             ; 16-byte Folded Reload
Ltmp46:
	;DEBUG_VALUE: vm_loop:internal_program <- [DW_OP_LLVM_entry_value 1] $x0
	ret
Ltmp47:
LBB5_2:
	;DEBUG_VALUE: vm_loop:internal_program <- $x19
	.loc	0 0 1 is_stmt 0                 ; internal_instruction.c:0:1
	bl	___stack_chk_fail
Ltmp48:
	.loh AdrpLdrGotLdr	Lloh15, Lloh16, Lloh17
	.loh AdrpLdrGotLdr	Lloh12, Lloh13, Lloh14
Lfunc_end5:
	.cfi_endproc
                                        ; -- End function
	.section	__TEXT,__cstring,cstring_literals
l_.str:                                 ; @.str
	.asciz	"%x: load memory[%d] = %d\n"

l_.str.1:                               ; @.str.1
	.asciz	"%x: add memory[%d](%d) = memory[%d] + memory[%d]\n"

l_.str.2:                               ; @.str.2
	.asciz	"%x: jmpne if memory[%d](%d) != memory[%d](%d) then pp = %x\n"

l_.str.3:                               ; @.str.3
	.asciz	"%x: print memory[%d](%d)\n"

l_.str.4:                               ; @.str.4
	.asciz	"%d\n"

l_.str.5:                               ; @.str.5
	.asciz	"%x: ret\n"

	.file	2 "." "internal_instruction.h" md5 0xc2dfda2d882de019285914906a4665d7 source "#pragma once\n\n#pragma clang diagnostic push\n#pragma clang diagnostic ignored \"-Wvisibility\"\ntypedef struct internal_instruction\n{\n    void (*handler)(struct internal_instruction *instruction, int *memory);\n    unsigned char a;\n    unsigned char b;\n    union\n    {\n        unsigned char c;\n        struct internal_instruction *jmp;\n        int imm;\n    };\n} internal_instruction_t;\n#pragma clang diagnostic pop\n\nextern void load(internal_instruction_t *restrict instruction,\n                 int *restrict memory);\n\nextern void add(internal_instruction_t *restrict instruction,\n                int *restrict memory);\n\nextern void jmpne(internal_instruction_t *restrict instruction,\n                  int *restrict memory);\n\nextern void print(internal_instruction_t *restrict instruction,\n                  int *restrict memory);\n\nextern void ret(internal_instruction_t *restrict instruction,\n                int *restrict memory);\n\nextern void vm_loop(internal_instruction_t *internal_program);\n"